((dp0
I0
(lp1
(I0
I-1
tp2
asI1
(lp3
(I0
I0
tp4
a(I1
I-1
tp5
asI2
(lp6
(I0
I0
tp7
a(I1
I0
tp8
a(I2
I-1
tp9
asI3
(lp10
(I0
I0
tp11
a(I1
I0
tp12
a(I3
I-1
tp13
asI4
(lp14
(I0
I0
tp15
a(I2
I0
tp16
a(I3
I0
tp17
a(I4
I-1
tp18
asI5
(lp19
(I0
I0
tp20
a(I1
I0
tp21
a(I2
I0
tp22
a(I3
I0
tp23
a(I4
I0
tp24
a(I5
I-1
tp25
asI6
(lp26
(I1
I0
tp27
a(I2
I0
tp28
a(I3
I0
tp29
a(I4
I0
tp30
a(I5
I0
tp31
a(I6
I-1
tp32
asI7
(lp33
(I0
I0
tp34
a(I1
I0
tp35
a(I2
I0
tp36
a(I3
I0
tp37
a(I4
I0
tp38
a(I6
I0
tp39
a(I7
I-1
tp40
asI8
(lp41
(I0
I0
tp42
a(I1
I0
tp43
a(I2
I0
tp44
a(I3
I0
tp45
a(I4
I0
tp46
a(I6
I0
tp47
a(I7
I0
tp48
a(I8
I-1
tp49
asI9
(lp50
(I0
I0
tp51
a(I2
I0
tp52
a(I3
I0
tp53
a(I6
I0
tp54
a(I7
I0
tp55
a(I9
I-1
tp56
asI10
(lp57
(I0
I0
tp58
a(I1
I0
tp59
a(I7
I0
tp60
a(I8
I0
tp61
a(I10
I-1
tp62
asI11
(lp63
(I1
I0
tp64
a(I4
I0
tp65
a(I5
I0
tp66
a(I6
I0
tp67
a(I7
I0
tp68
a(I9
I0
tp69
a(I10
I0
tp70
a(I11
I-1
tp71
asI12
(lp72
(I0
I0
tp73
a(I1
I0
tp74
a(I4
I0
tp75
a(I5
I0
tp76
a(I6
I0
tp77
a(I9
I0
tp78
a(I12
I-1
tp79
asI13
(lp80
(I0
I0
tp81
a(I3
I0
tp82
a(I4
I0
tp83
a(I12
I0
tp84
a(I13
I-1
tp85
asI14
(lp86
(I1
I0
tp87
a(I3
I0
tp88
a(I4
I0
tp89
a(I5
I0
tp90
a(I8
I0
tp91
a(I9
I0
tp92
a(I12
I0
tp93
a(I13
I0
tp94
a(I14
I-1
tp95
asI15
(lp96
(I2
I0
tp97
a(I4
I0
tp98
a(I9
I0
tp99
a(I12
I0
tp100
a(I13
I0
tp101
a(I14
I0
tp102
a(I15
I-1
tp103
asI16
(lp104
(I0
I0
tp105
a(I2
I0
tp106
a(I3
I0
tp107
a(I4
I0
tp108
a(I5
I0
tp109
a(I6
I0
tp110
a(I7
I0
tp111
a(I8
I0
tp112
a(I9
I0
tp113
a(I11
I0
tp114
a(I12
I0
tp115
a(I13
I0
tp116
a(I16
I-1
tp117
asI17
(lp118
(I3
I0
tp119
a(I4
I0
tp120
a(I5
I0
tp121
a(I7
I0
tp122
a(I10
I0
tp123
a(I14
I0
tp124
a(I17
I-1
tp125
asI18
(lp126
(I0
I0
tp127
a(I1
I0
tp128
a(I3
I0
tp129
a(I4
I0
tp130
a(I9
I0
tp131
a(I10
I0
tp132
a(I12
I0
tp133
a(I14
I0
tp134
a(I15
I0
tp135
a(I17
I0
tp136
a(I18
I-1
tp137
asI19
(lp138
(I1
I0
tp139
a(I3
I0
tp140
a(I4
I0
tp141
a(I7
I0
tp142
a(I9
I0
tp143
a(I10
I0
tp144
a(I14
I0
tp145
a(I19
I-1
tp146
asI20
(lp147
(I0
I0
tp148
a(I2
I0
tp149
a(I8
I0
tp150
a(I12
I0
tp151
a(I13
I0
tp152
a(I14
I0
tp153
a(I18
I0
tp154
a(I19
I0
tp155
a(I20
I-1
tp156
asI21
(lp157
(I0
I0
tp158
a(I3
I0
tp159
a(I4
I0
tp160
a(I6
I0
tp161
a(I7
I0
tp162
a(I10
I0
tp163
a(I12
I0
tp164
a(I14
I0
tp165
a(I16
I0
tp166
a(I17
I0
tp167
a(I21
I-1
tp168
asI22
(lp169
(I3
I0
tp170
a(I4
I0
tp171
a(I9
I0
tp172
a(I14
I0
tp173
a(I15
I0
tp174
a(I19
I0
tp175
a(I20
I0
tp176
a(I22
I-1
tp177
asI23
(lp178
(I0
I0
tp179
a(I5
I0
tp180
a(I9
I0
tp181
a(I12
I0
tp182
a(I15
I0
tp183
a(I18
I0
tp184
a(I23
I-1
tp185
asI24
(lp186
(I3
I0
tp187
a(I5
I0
tp188
a(I13
I0
tp189
a(I17
I0
tp190
a(I20
I0
tp191
a(I24
I-1
tp192
asI25
(lp193
(I0
I0
tp194
a(I6
I0
tp195
a(I9
I0
tp196
a(I12
I0
tp197
a(I13
I0
tp198
a(I16
I0
tp199
a(I17
I0
tp200
a(I19
I0
tp201
a(I20
I0
tp202
a(I21
I0
tp203
a(I25
I-1
tp204
asI26
(lp205
(I0
I0
tp206
a(I1
I0
tp207
a(I4
I0
tp208
a(I5
I0
tp209
a(I7
I0
tp210
a(I8
I0
tp211
a(I9
I0
tp212
a(I12
I0
tp213
a(I13
I0
tp214
a(I15
I0
tp215
a(I17
I0
tp216
a(I18
I0
tp217
a(I20
I0
tp218
a(I22
I0
tp219
a(I23
I0
tp220
a(I25
I0
tp221
a(I26
I-1
tp222
asI27
(lp223
(I12
I0
tp224
a(I23
I0
tp225
a(I26
I0
tp226
a(I27
I-1
tp227
asI28
(lp228
(I2
I0
tp229
a(I9
I0
tp230
a(I10
I0
tp231
a(I13
I0
tp232
a(I15
I0
tp233
a(I17
I0
tp234
a(I20
I0
tp235
a(I22
I0
tp236
a(I24
I0
tp237
a(I28
I-1
tp238
asI29
(lp239
(I1
I0
tp240
a(I3
I0
tp241
a(I4
I0
tp242
a(I7
I0
tp243
a(I8
I0
tp244
a(I9
I0
tp245
a(I12
I0
tp246
a(I13
I0
tp247
a(I14
I0
tp248
a(I15
I0
tp249
a(I17
I0
tp250
a(I18
I0
tp251
a(I19
I0
tp252
a(I20
I0
tp253
a(I22
I0
tp254
a(I23
I0
tp255
a(I24
I0
tp256
a(I25
I0
tp257
a(I26
I0
tp258
a(I27
I0
tp259
a(I28
I0
tp260
a(I29
I-1
tp261
asI30
(lp262
(I2
I0
tp263
a(I6
I0
tp264
a(I17
I0
tp265
a(I30
I-1
tp266
asI31
(lp267
(I0
I0
tp268
a(I1
I0
tp269
a(I2
I0
tp270
a(I4
I0
tp271
a(I5
I0
tp272
a(I6
I0
tp273
a(I8
I0
tp274
a(I10
I0
tp275
a(I11
I0
tp276
a(I12
I0
tp277
a(I13
I0
tp278
a(I14
I0
tp279
a(I15
I0
tp280
a(I16
I0
tp281
a(I17
I0
tp282
a(I18
I0
tp283
a(I19
I0
tp284
a(I20
I0
tp285
a(I22
I0
tp286
a(I23
I0
tp287
a(I24
I0
tp288
a(I26
I0
tp289
a(I27
I0
tp290
a(I29
I0
tp291
a(I30
I0
tp292
a(I31
I-1
tp293
asI32
(lp294
(I1
I0
tp295
a(I2
I0
tp296
a(I3
I0
tp297
a(I4
I0
tp298
a(I5
I0
tp299
a(I6
I0
tp300
a(I7
I0
tp301
a(I8
I0
tp302
a(I9
I0
tp303
a(I10
I0
tp304
a(I11
I0
tp305
a(I12
I0
tp306
a(I13
I0
tp307
a(I14
I0
tp308
a(I15
I0
tp309
a(I17
I0
tp310
a(I19
I0
tp311
a(I21
I0
tp312
a(I22
I0
tp313
a(I23
I0
tp314
a(I25
I0
tp315
a(I27
I0
tp316
a(I29
I0
tp317
a(I31
I0
tp318
a(I32
I-1
tp319
asI33
(lp320
(I2
I0
tp321
a(I11
I0
tp322
a(I14
I0
tp323
a(I17
I0
tp324
a(I18
I0
tp325
a(I23
I0
tp326
a(I26
I0
tp327
a(I31
I0
tp328
a(I32
I0
tp329
a(I33
I-1
tp330
asI34
(lp331
(I5
I0
tp332
a(I8
I0
tp333
a(I12
I0
tp334
a(I14
I0
tp335
a(I18
I0
tp336
a(I24
I0
tp337
a(I30
I0
tp338
a(I31
I0
tp339
a(I33
I0
tp340
a(I34
I-1
tp341
asI35
(lp342
(I6
I0
tp343
a(I12
I0
tp344
a(I13
I0
tp345
a(I17
I0
tp346
a(I20
I0
tp347
a(I28
I0
tp348
a(I30
I0
tp349
a(I35
I-1
tp350
asI36
(lp351
(I0
I0
tp352
a(I1
I0
tp353
a(I3
I0
tp354
a(I5
I0
tp355
a(I8
I0
tp356
a(I10
I0
tp357
a(I12
I0
tp358
a(I14
I0
tp359
a(I15
I0
tp360
a(I17
I0
tp361
a(I18
I0
tp362
a(I20
I0
tp363
a(I23
I0
tp364
a(I24
I0
tp365
a(I27
I0
tp366
a(I30
I0
tp367
a(I31
I0
tp368
a(I32
I0
tp369
a(I36
I-1
tp370
asI37
(lp371
(I0
I0
tp372
a(I3
I0
tp373
a(I4
I0
tp374
a(I5
I0
tp375
a(I6
I0
tp376
a(I8
I0
tp377
a(I10
I0
tp378
a(I11
I0
tp379
a(I12
I0
tp380
a(I13
I0
tp381
a(I14
I0
tp382
a(I15
I0
tp383
a(I19
I0
tp384
a(I22
I0
tp385
a(I23
I0
tp386
a(I24
I0
tp387
a(I25
I0
tp388
a(I26
I0
tp389
a(I27
I0
tp390
a(I28
I0
tp391
a(I30
I0
tp392
a(I31
I0
tp393
a(I32
I0
tp394
a(I33
I0
tp395
a(I34
I0
tp396
a(I37
I-1
tp397
asI38
(lp398
(I4
I0
tp399
a(I5
I0
tp400
a(I6
I0
tp401
a(I7
I0
tp402
a(I11
I0
tp403
a(I16
I0
tp404
a(I20
I0
tp405
a(I22
I0
tp406
a(I23
I0
tp407
a(I25
I0
tp408
a(I27
I0
tp409
a(I30
I0
tp410
a(I31
I0
tp411
a(I34
I0
tp412
a(I36
I0
tp413
a(I38
I-1
tp414
asI39
(lp415
(I0
I0
tp416
a(I6
I0
tp417
a(I8
I0
tp418
a(I11
I0
tp419
a(I12
I0
tp420
a(I13
I0
tp421
a(I16
I0
tp422
a(I17
I0
tp423
a(I21
I0
tp424
a(I24
I0
tp425
a(I25
I0
tp426
a(I35
I0
tp427
a(I39
I-1
tp428
asI40
(lp429
(I0
I0
tp430
a(I3
I0
tp431
a(I5
I0
tp432
a(I12
I0
tp433
a(I16
I0
tp434
a(I23
I0
tp435
a(I26
I0
tp436
a(I27
I0
tp437
a(I30
I0
tp438
a(I31
I0
tp439
a(I33
I0
tp440
a(I38
I0
tp441
a(I40
I-1
tp442
asI41
(lp443
(I0
I0
tp444
a(I1
I0
tp445
a(I2
I0
tp446
a(I3
I0
tp447
a(I4
I0
tp448
a(I5
I0
tp449
a(I6
I0
tp450
a(I7
I0
tp451
a(I8
I0
tp452
a(I9
I0
tp453
a(I10
I0
tp454
a(I12
I0
tp455
a(I15
I0
tp456
a(I16
I0
tp457
a(I17
I0
tp458
a(I18
I0
tp459
a(I19
I0
tp460
a(I21
I0
tp461
a(I22
I0
tp462
a(I23
I0
tp463
a(I24
I0
tp464
a(I25
I0
tp465
a(I26
I0
tp466
a(I27
I0
tp467
a(I28
I0
tp468
a(I30
I0
tp469
a(I31
I0
tp470
a(I32
I0
tp471
a(I34
I0
tp472
a(I35
I0
tp473
a(I36
I0
tp474
a(I37
I0
tp475
a(I38
I0
tp476
a(I39
I0
tp477
a(I40
I0
tp478
a(I41
I-1
tp479
asI42
(lp480
(I1
I0
tp481
a(I6
I0
tp482
a(I8
I0
tp483
a(I11
I0
tp484
a(I18
I0
tp485
a(I19
I0
tp486
a(I23
I0
tp487
a(I30
I0
tp488
a(I33
I0
tp489
a(I35
I0
tp490
a(I41
I0
tp491
a(I42
I-1
tp492
asI43
(lp493
(I0
I0
tp494
a(I3
I0
tp495
a(I4
I0
tp496
a(I6
I0
tp497
a(I7
I0
tp498
a(I8
I0
tp499
a(I9
I0
tp500
a(I10
I0
tp501
a(I11
I0
tp502
a(I12
I0
tp503
a(I14
I0
tp504
a(I15
I0
tp505
a(I16
I0
tp506
a(I17
I0
tp507
a(I18
I0
tp508
a(I20
I0
tp509
a(I23
I0
tp510
a(I26
I0
tp511
a(I27
I0
tp512
a(I29
I0
tp513
a(I34
I0
tp514
a(I36
I0
tp515
a(I37
I0
tp516
a(I38
I0
tp517
a(I39
I0
tp518
a(I40
I0
tp519
a(I41
I0
tp520
a(I42
I0
tp521
a(I43
I-1
tp522
asI44
(lp523
(I2
I0
tp524
a(I3
I0
tp525
a(I4
I0
tp526
a(I13
I0
tp527
a(I17
I0
tp528
a(I19
I0
tp529
a(I22
I0
tp530
a(I23
I0
tp531
a(I29
I0
tp532
a(I42
I0
tp533
a(I44
I-1
tp534
asI45
(lp535
(I1
I0
tp536
a(I2
I0
tp537
a(I4
I0
tp538
a(I8
I0
tp539
a(I12
I0
tp540
a(I14
I0
tp541
a(I20
I0
tp542
a(I23
I0
tp543
a(I27
I0
tp544
a(I29
I0
tp545
a(I30
I0
tp546
a(I38
I0
tp547
a(I40
I0
tp548
a(I44
I0
tp549
a(I45
I-1
tp550
asI46
(lp551
(I5
I0
tp552
a(I8
I0
tp553
a(I9
I0
tp554
a(I12
I0
tp555
a(I13
I0
tp556
a(I14
I0
tp557
a(I17
I0
tp558
a(I19
I0
tp559
a(I23
I0
tp560
a(I26
I0
tp561
a(I33
I0
tp562
a(I34
I0
tp563
a(I35
I0
tp564
a(I40
I0
tp565
a(I42
I0
tp566
a(I46
I-1
tp567
asI47
(lp568
(I14
I0
tp569
a(I20
I0
tp570
a(I22
I0
tp571
a(I37
I0
tp572
a(I47
I-1
tp573
asI48
(lp574
(I12
I0
tp575
a(I14
I0
tp576
a(I19
I0
tp577
a(I26
I0
tp578
a(I31
I0
tp579
a(I40
I0
tp580
a(I44
I0
tp581
a(I48
I-1
tp582
asI49
(lp583
(I0
I0
tp584
a(I1
I0
tp585
a(I3
I0
tp586
a(I10
I0
tp587
a(I26
I0
tp588
a(I27
I0
tp589
a(I30
I0
tp590
a(I33
I0
tp591
a(I34
I0
tp592
a(I40
I0
tp593
a(I48
I0
tp594
a(I49
I-1
tp595
as(lp596
cnumpy.core.multiarray
scalar
p597
(cnumpy
dtype
p598
(S'f8'
p599
I0
I1
tp600
Rp601
(I3
S'<'
p602
NNNI-1
I-1
I0
tp603
bS'|\xe9\xfe[\x14VB@'
p604
tp605
Rp606
ag597
(g601
S'B\x84\x95\xf4\xcal>@'
p607
tp608
Rp609
ag597
(g601
S'\x18L\x01~\x92{\n@'
p610
tp611
Rp612
ag597
(g601
S'\xf0\x95sx\xb6\x1c\x04\xc0'
p613
tp614
Rp615
ag597
(g601
S'T{I\xd4Y\xc8\x16@'
p616
tp617
Rp618
ag597
(g601
S'\xdf\x17\x7f:\xf2\x1b.@'
p619
tp620
Rp621
ag597
(g601
S'\xb4\xb6\x08\xf6\x8e#\x17@'
p622
tp623
Rp624
ag597
(g601
S'x\xde\xc5}\xcc\x92\x11@'
p625
tp626
Rp627
ag597
(g601
S'l\x9b\xd0`l\xe70@'
p628
tp629
Rp630
ag597
(g601
S'\xb0\x86\xbb\xb2\x9c\x02\x1c\xc0'
p631
tp632
Rp633
ag597
(g601
S'\xe0\x01\x99P\x93 \x04\xc0'
p634
tp635
Rp636
ag597
(g601
S'\xb8p5\xc3\\A\x1b@'
p637
tp638
Rp639
ag597
(g601
S'\x00\x0c\xa4\xbf\xad\x07\xa9\xbf'
p640
tp641
Rp642
ag597
(g601
S'\x00\xfe_gM\x19\xcf?'
p643
tp644
Rp645
ag597
(g601
S'`\xa7V\xae\x19\x15#\xc0'
p646
tp647
Rp648
ag597
(g601
S'\xa8\xf7<\xad\xf6\xb6\x00\xc0'
p649
tp650
Rp651
ag597
(g601
S'`\xf9O\xe6\xbbm\xe9?'
p652
tp653
Rp654
ag597
(g601
S'\xa8mE\x1b\xdb]\x1b\xc0'
p655
tp656
Rp657
ag597
(g601
S'@\xa3W\xf7\xb7F\x01\xc0'
p658
tp659
Rp660
ag597
(g601
S'0m5\xdeP_\x0b\xc0'
p661
tp662
Rp663
ag597
(g601
S'@eH\x05\xe3K\x12\xc0'
p664
tp665
Rp666
ag597
(g601
S'\xc0\xff\xc3e\xed\x08\xfa?'
p667
tp668
Rp669
ag597
(g601
S'\x84B\x94\x8b\xf5J\x10\xc0'
p670
tp671
Rp672
ag597
(g601
S'\xc6\xc9GJ\xd7\xc82\xc0'
p673
tp674
Rp675
ag597
(g601
S'\x90\x1aJ\x1c`\xfc\x08@'
p676
tp677
Rp678
ag597
(g601
S'T:\x86k\xd2\xee\x13@'
p679
tp680
Rp681
ag597
(g601
S')\xa1\xb3\x9f\xd907@'
p682
tp683
Rp684
ag597
(g601
S'H\xfe\x8b\x8f;L@@'
p685
tp686
Rp687
ag597
(g601
S'\xe0\x9f\x89\xf8\xec^\xfa?'
p688
tp689
Rp690
ag597
(g601
S"\xbaN[[\x9b\xdd'@"
p691
tp692
Rp693
ag597
(g601
S'@z\xfe\x94\xdf\x1c\t\xc0'
p694
tp695
Rp696
ag597
(g601
S'\xe9\x93Y\xbf\x145M@'
p697
tp698
Rp699
ag597
(g601
S'@-\xa9\x87>\\\xde?'
p700
tp701
Rp702
ag597
(g601
S'\x00\x17v\x19\xcd\xd2\xb9\xbf'
p703
tp704
Rp705
ag597
(g601
S'\xd6z&fR\x9f2@'
p706
tp707
Rp708
ag597
(g601
S'@\x1e\xad\xebk\x13\xe2\xbf'
p709
tp710
Rp711
ag597
(g601
S'0\xe6[\xdf3k\x1a\xc0'
p712
tp713
Rp714
ag597
(g601
S'\xc0wS\x00\x95b\xd2\xbf'
p715
tp716
Rp717
ag597
(g601
S'\xcc\xe7;=\xfdv8@'
p718
tp719
Rp720
ag597
(g601
S'P=\x0b=7\xf4\xfc?'
p721
tp722
Rp723
ag597
(g601
S'8\x88\x01\x9b\xcc\xb2\x13@'
p724
tp725
Rp726
ag597
(g601
S'\xf0\x97/e"\xfe\x06\xc0'
p727
tp728
Rp729
ag597
(g601
S'`zkj_\xba\xe1?'
p730
tp731
Rp732
ag597
(g601
S'(D\x1f\x8e\xbaL\x11@'
p733
tp734
Rp735
ag597
(g601
S'X\xd8\xf5\x18\xc0,\x07@'
p736
tp737
Rp738
ag597
(g601
S'H\xdb\xca\x8b\x88\x163@'
p739
tp740
Rp741
ag597
(g601
S'`\r\x9d\x14t\x15\x04\xc0'
p742
tp743
Rp744
ag597
(g601
S'.\xc3\x1a\x032\xca!@'
p745
tp746
Rp747
ag597
(g601
S'\x0b\x8c$\x83o&5@'
p748
tp749
Rp750
ag597
(g601
S'o\x00S4"\xecH@'
p751
tp752
Rp753
a(lp754
(lp755
a(lp756
F0.34377176083360134
aa(lp757
F-0.19194275668184796
aF0.6432975317895827
aa(lp758
F0.09600233091519249
aF0.9613035578009147
aa(lp759
F0.672057761267952
aF0.0
aF-0.02742687397828165
aa(lp760
F0.3888979722096633
aF-0.0
aF-0.0
aF-0.04344859213046807
aF0.11516848426343372
aa(lp761
F0.0
aF0.8768742904306329
aF0.0
aF-0.015349671172213253
aF0.0
aa(lp762
F-0.021333725827560934
aF0.26143676727472265
aF0.32469713365006075
aF0.0
aF0.03706330422709912
aF0.2720773166636622
aa(lp763
F-0.0671528958498529
aF0.36402614302631703
aF0.18451166819957443
aF0.2236282699111679
aF-0.10895020513551504
aF0.02262160093045281
aF0.2286132588797422
aa(lp764
F-0.07924365524041181
aF0.12613749063600393
aF0.5671792926522031
aF0.15763631587701768
aF0.06154414435802164
aa(lp765
F0.0808441300255952
aF0.5836672559265534
aF0.14967385339517467
aF0.2232737182452158
aa(lp766
F0.012299868982143122
aF-0.002886103129054099
aF-0.0013970302749268934
aF0.06313995032995415
aF0.7294399952632893
aF0.017889673401715014
aF0.08933326053777015
aa(lp767
F0.38973189868809355
aF-0.080553478950627
aF0.4731394795563641
aF0.40041913918677635
aF-0.09277641960228451
aF-0.03333655665403958
aa(lp768
F0.5040086395969993
aF0.3641324660764642
aF0.2841153499313858
aF0.05377998026601888
aa(lp769
F0.0
aF0.0
aF0.39141828617055
aF-0.09597397697198709
aF-0.07771267595997353
aF0.45590188175274
aF0.10642723238467684
aF0.38526030039836157
aa(lp770
F0.08326286663864055
aF0.002191317984070322
aF0.7053015252177829
aF0.013043749880332144
aF0.039960566169788166
aF0.12133706608870076
aa(lp771
F0.015275893886153961
aF0.2721269449913019
aF0.03361852762642228
aF-0.0
aF-0.03752664906530444
aF0.21219793270176968
aF0.3104093691777884
aF-0.0
aF0.02142800200814046
aF0.17802794659766022
aF-0.017386449544148676
aF-0.016287954863469224
aa(lp772
F-0.01620261730513263
aF0.5324167234580623
aF-0.11868382447404177
aF-0.0
aF-0.0
aF0.4580262467029962
aa(lp773
F-0.0
aF0.0
aF0.0
aF0.11455988215355004
aF-0.0
aF0.0
aF-0.0
aF0.4731229170484765
aF0.007592491726106902
aF0.4374999776459979
aa(lp774
F0.4033445626857276
aF0.07807212266579365
aF-0.02912440238736939
aF0.11849429462875599
aF0.4790818779182817
aF0.0013292620081552737
aF0.0
aa(lp775
F0.09576427786054174
aF0.11353132505792281
aF-0.044852811331556774
aF0.12509719426271118
aF0.4797236802376302
aF0.39537705306124366
aF0.05860467101303296
aF-0.058505561658357234
aa(lp776
F-0.0
aF0.019462268273477468
aF-0.0
aF0.031706459445694446
aF0.6286252217007521
aF0.013495913763489364
aF-0.013659163718173814
aF-0.0
aF0.27214199274479905
aF0.003239477901280261
aa(lp777
F0.1936699806608424
aF-0.0
aF0.4676207345383388
aF0.30411217620013625
aF0.04851900164151494
aF0.024941375560134982
aF0.008281898493096844
aa(lp778
F0.18978308178827688
aF0.6224803973037208
aF0.07453048826314304
aF0.4352231167005932
aF0.21029009486444045
aF-0.5219574694074605
aa(lp779
F0.7458166753283724
aF-0.0
aF0.2295823965543947
aF-0.009693580900398598
aF0.0
aa(lp780
F-0.017330982039493077
aF0.1925787144957653
aF0.024455517569881464
aF-0.008143421721436103
aF-0.021536707876755115
aF0.5738415020097505
aF-0.002286061023084656
aF0.07586725239097004
aF-0.002827210272049744
aF0.11245179548456019
aa(lp781
F0.5406080987889382
aF-0.01304325361276273
aF0.05271207474342802
aF0.44056154427740907
aF-0.06350005504262682
aF0.11875327221027476
aF-0.0
aF0.0
aF-0.0441529869080002
aF-0.05930345500747695
aF-0.06578808899706634
aF0.03028886380438465
aF0.003245798689641744
aF-0.08847731219048172
aF-0.03190324548630018
aF-0.09100212778627408
aa(lp782
F0.07172519317850447
aF0.04638608307644841
aF0.449371785606998
aa(lp783
F0.016766107996120484
aF0.14989159935790553
aF0.009079042719023872
aF0.5329009793580479
aF0.005900155482304423
aF0.04229223618817219
aF0.05154412538055811
aF0.05912805817067977
aF0.1675177577663422
aa(lp784
F0.06971247471534552
aF0.043622080957830676
aF-0.0
aF-0.10326371205966121
aF-0.009517037215536008
aF0.0
aF-0.0
aF-0.0
aF0.008274196694940887
aF0.0
aF-0.0
aF0.01675261816965387
aF0.0
aF0.0
aF0.23368641599480644
aF0.05020129095012444
aF0.22723546924654717
aF0.0
aF-0.11329492140896891
aF-0.07569792206339762
aF0.4988580130706682
aa(lp785
F0.5057377462013082
aF0.4683634966576354
aF0.02935356247071198
aa(lp786
F-0.017347892617444984
aF0.13809664320239434
aF-0.0019572006336872052
aF-0.2869611190523898
aF0.002101625415964375
aF0.2493798326885788
aF0.26642959789227894
aF0.24036343351408698
aF-0.5540244677501406
aF0.16486696618571703
aF-0.3546054134208654
aF0.034389063978892256
aF0.0406537200220929
aF0.06007463251422698
aF0.16944520004207028
aF-0.2394600899902111
aF-0.0016733870391529965
aF0.25967570694602976
aF-0.04731994074443424
aF-0.1420789751030696
aF0.19638728604895517
aF-0.07515589077761568
aF0.1823702208873605
aF-0.15343671218386573
aF-0.01977800227495206
aa(lp787
F0.22780855120281773
aF-0.014236484047500131
aF-0.09087402658303967
aF0.10947449395398685
aF0.17827931941575387
aF-0.014357865344700281
aF0.16604910727971328
aF0.021822720766239152
aF0.31512082363513844
aF-0.20406165486103145
aF-0.0
aF0.016034363531382524
aF0.0
aF0.111167256573005
aF0.1517561371737273
aF0.07921530689971129
aF-0.05875974297382689
aF-0.21203881242073053
aF0.38504235834763473
aF-0.14493919114733583
aF-0.01199548646116791
aF-0.08983884695219592
aF0.08625068237630057
aF-0.022314626392905077
aa(lp788
F-0.027574989128822953
aF-0.05890785925464595
aF0.37065998852484106
aF0.19976358470889838
aF0.22557469230325677
aF-0.04970417328957192
aF0.0
aF-0.0
aF0.2220484586021465
aa(lp789
F-0.09668005203907504
aF0.0714903991651195
aF-0.0207710468787278
aF-0.004977911371734888
aF-0.005437089676397089
aF0.7472453551327908
aF0.007315921216368369
aF0.0
aF-0.0
aa(lp790
F0.019552901461068466
aF0.08208920968279895
aF0.43150564420431403
aF0.007111699438963894
aF0.44426878468574865
aF0.049448227625080915
aF0.01857468725615742
aa(lp791
F0.06598045633176222
aF0.0066944166951941435
aF-0.009246731172210119
aF0.04551223389190342
aF-0.047431436829775596
aF0.04170194339668898
aF0.013245605088249094
aF0.669909347296
aF-0.08117148368507557
aF-0.00025158442305764925
aF0.2086544634853357
aF0.14709266102898688
aF0.03036931427162244
aF-0.05314766090198985
aF0.0503579022023179
aF0.01403984712934296
aF0.05646019929702161
aF-0.01875952038065162
aa(lp792
F-0.024203484560854416
aF0.024633655117728966
aF0.04750500608137175
aF0.0500776915212797
aF-0.021527825946741578
aF0.04183779861647313
aF-0.05619694712900055
aF0.07231960693902195
aF-0.0369297621222294
aF-0.0
aF0.02776267387637847
aF0.009171114601709046
aF-0.11591641361543878
aF0.42322115237062496
aF-0.023762744380308707
aF0.09736649204340862
aF-0.005647069307661164
aF0.028343673102025513
aF-0.0
aF-0.032131494950149
aF-0.0042700693671086495
aF-0.033996949519537537
aF0.6335033303237524
aF-0.05180362922766266
aF-0.05987734844677413
aa(lp793
F0.016435968259779225
aF0.2700106497916926
aF0.0449480209455596
aF0.0
aF0.005519093935038707
aF0.0
aF0.04926934152562988
aF-0.020002856828624547
aF0.1492754401394728
aF0.08592948528983543
aF0.03594642947501353
aF0.0
aF0.0
aF-0.026757465015780982
aF0.025234198267626774
aa(lp794
F0.021915857522190718
aF0.022854384277760705
aF-0.0015140272875454293
aF0.05794379212156101
aF-0.02122065139270799
aF0.0012645699640819285
aF0.22160692874016444
aF0.003361967733547713
aF0.6126067027844637
aF0.008336124487502709
aF0.028691310311243955
aF0.0016176797546937048
aa(lp795
F0.19924987234847114
aF-0.05523941666152633
aF0.07004194681548163
aF0.017862171632770815
aF0.04770081584451975
aF0.002130452533849198
aF0.6995647528655434
aF0.11087059497173127
aF0.0073277777411593584
aF0.0
aF-0.0
aF0.018743985637673675
aa(lp796
F-0.0415586224243818
aF-0.04731747914086308
aF0.19556547970071908
aF-0.11578130995293186
aF-0.08167797446844864
aF0.18949050002197318
aF0.6193130893691204
aF0.13864660734567866
aF-0.0
aF-0.02594108711157078
aF0.15279048258201083
aF0.02040734999709949
aF-0.03934575114745024
aF0.17725043635492865
aF-0.016221835247820778
aF0.06760943096766221
aF0.026176053461913748
aF0.1417754628545755
aF-0.062226157152346515
aF-0.035565911212851055
aF-0.07766109989821174
aF0.023185777195517097
aF-0.044526591407756784
aF-0.08150831015207473
aF-0.0
aF-0.09064946731846107
aF0.01670640015233163
aF0.003140447870501578
aF0.1260182037525022
aF0.016258335865769993
aF-0.0019309426580614566
aF0.044352823944861244
aF-0.023313367715369446
aF-0.15271097744378845
aF0.04587523937234038
aa(lp797
F-0.0
aF0.15879703510729998
aF-0.006769231959261845
aF-0.0031314983914782516
aF0.03301804304578413
aF-0.08061138936223015
aF0.0
aF0.8788838258424024
aF0.003626146450698225
aF0.0086204250450007
aF0.0
aa(lp798
F0.05072370824725107
aF-0.024905043685715045
aF-0.014391673631049392
aF0.0
aF0.07590711065054406
aF0.12811099074502222
aF0.01727603704579739
aF0.3124875754650193
aF0.5686764277014902
aF0.07120264203787444
aF0.08825974943727494
aF0.043602374511853524
aF-0.17036864085119433
aF0.04541841151122364
aF-0.04000119864403918
aF-0.027014847427827105
aF0.0830706219303336
aF-0.06445726627343218
aF-0.06001457392897015
aF-0.050499442651814073
aF0.06752757071948738
aF-0.025897861776203242
aF-0.17590942160004655
aF-0.0601432480875029
aF0.15458814103509044
aF-0.06348636135796557
aF0.007928587614714447
aF0.04367396060429551
aa(lp799
F-0.04940727002584402
aF0.09398152282640333
aF-0.0312137357778391
aF0.09266600576734291
aF-0.004466274012161961
aF0.4260861226722107
aF0.46415235853294357
aF-0.008058495294416634
aF0.011754123409105624
aF-0.0169068808636026
aa(lp800
F-0.0
aF0.0
aF0.08358698711291668
aF0.03561084797454756
aF0.0011932573628728222
aF-0.0
aF0.0
aF0.11094353722001148
aF0.05432743986310521
aF-0.002745837063337922
aF0.0
aF0.38853448845489746
aF0.0
aF-0.007850524646396392
aa(lp801
F0.3883251131860942
aF0.0
aF-0.07497230593745713
aF0.048054765889114275
aF0.04170733745480601
aF-0.012355846733801057
aF-0.007496109833782123
aF-0.005450826549143129
aF0.13724573944419902
aF0.19827723856208
aF-0.040263599207488114
aF0.10562984269231125
aF0.0954535327725065
aF0.024782132716453117
aF0.0063009014496264275
aa(lp802
F0.11812857130798621
aF0.21328094510165604
aF0.5038063762593872
aF0.044465792891282434
aa(lp803
F-0.0
aF-0.0
aF-0.0
aF-0.0
aF0.0
aF-0.0
aF-0.0
aa(lp804
F0.0025885347476108894
aF0.007146792818948384
aF0.0
aF0.006021315600816903
aF0.11221562294853626
aF0.006433683521195533
aF0.019025888097618376
aF0.09792453831206764
aF0.008880453974410752
aF0.1956550984087524
aF0.06907291543211513
aa(lp805
g597
(g601
S'U\xaa\xb2\xb61bQ@'
p806
tp807
Rp808
ag597
(g601
S'\xd4x\x90\xcf\xc85S@'
p809
tp810
Rp811
ag597
(g601
S'\xb8D\x89p?\x91F@'
p812
tp813
Rp814
ag597
(g601
S'U\x9b\x94\xf8\xa3\xdd0@'
p815
tp816
Rp817
ag597
(g601
S'\xc9\xf8/\x14\xa5_e@'
p818
tp819
Rp820
ag597
(g601
S'\xd08\x00\x98\xb8D:@'
p821
tp822
Rp823
ag597
(g601
S'\xcfF\xd1\xf3cM&@'
p824
tp825
Rp826
ag597
(g601
S'dx\xdd(\xd2P2@'
p827
tp828
Rp829
ag597
(g601
S'Y\x7f\xd6\x8a]\xfa8@'
p830
tp831
Rp832
ag597
(g601
S'\xefq\x8d\x94\xce\xeeE@'
p833
tp834
Rp835
ag597
(g601
S'P\xfe+\x8dY\xb0"@'
p836
tp837
Rp838
ag597
(g601
S'\x19<z.v\x0c\x05@'
p839
tp840
Rp841
ag597
(g601
S'\x06\xa1=\\*QG@'
p842
tp843
Rp844
ag597
(g601
S'\xb2x\xac\xa4\x8d\x005@'
p845
tp846
Rp847
ag597
(g601
S'\xae\xf0\xb7\xb4HMF@'
p848
tp849
Rp850
ag597
(g601
S'b\xfe\xe3W\xdb\xc1 @'
p851
tp852
Rp853
ag597
(g601
S':n1t\x0b\xde\x0b@'
p854
tp855
Rp856
ag597
(g601
S'|\x87[\xeao\x01K@'
p857
tp858
Rp859
ag597
(g601
S'\xa3\x96\xdb\xeen\xd6+@'
p860
tp861
Rp862
ag597
(g601
S'7x^\x80xq,@'
p863
tp864
Rp865
ag597
(g601
S'#\x9e\xff\x84:\xc5.@'
p866
tp867
Rp868
ag597
(g601
S'\xa4\x98\xcd`\xe1\xdc\xfb?'
p869
tp870
Rp871
ag597
(g601
S'\xf8\x1e\xaf\n\xcd\xc2$@'
p872
tp873
Rp874
ag597
(g601
S']\xa5\xf9@(5P@'
p875
tp876
Rp877
ag597
(g601
S'\xdcN\x03\xfdp\xa90@'
p878
tp879
Rp880
ag597
(g601
S'e\\\xf3m\xa9\xca\xf8?'
p881
tp882
Rp883
ag597
(g601
S'\xf5\x86\xeeC\xb6\x9a-@'
p884
tp885
Rp886
ag597
(g601
S'\xcb\x8e\xa7\x7f\xe8\xa7+@'
p887
tp888
Rp889
ag597
(g601
S'\x83J\x0c\xda\x98\x82!@'
p890
tp891
Rp892
ag597
(g601
S'\xd0\x7f<#^+\x10@'
p893
tp894
Rp895
ag597
(g601
S'\xae\x92\xa8\x0b)w\x11@'
p896
tp897
Rp898
ag597
(g601
S'[U\xc1\x90{\x83\x15@'
p899
tp900
Rp901
ag597
(g601
S'\x182\xd1U|\x18\x1c@'
p902
tp903
Rp904
ag597
(g601
S'\x9b\x7f\x12\x90/h$@'
p905
tp906
Rp907
ag597
(g601
S'\x96\t.h\xb5\xc2#@'
p908
tp909
Rp910
ag597
(g601
S'8\x1b\xef\xe2\xf4\xb2\x18@'
p911
tp912
Rp913
ag597
(g601
S'FF\x91\x91S2\x10@'
p914
tp915
Rp916
ag597
(g601
S'q\x02\x90\xef\xfbp\xf8?'
p917
tp918
Rp919
ag597
(g601
S'\xdc\x06\xe8\xfe\xc2\xb6#@'
p920
tp921
Rp922
ag597
(g601
S'\xba\xc1\xaaq\x82\xd1\xed?'
p923
tp924
Rp925
ag597
(g601
S'V\xe1\x95\x86|M!@'
p926
tp927
Rp928
ag597
(g601
S'\xe2\x11\x8f\xc5\xb2E\xfb?'
p929
tp930
Rp931
ag597
(g601
S'1\xe0M\x0c-\x8c\x1c@'
p932
tp933
Rp934
ag597
(g601
S'\x11\x89\x96\x87\xd6\xdf\x01@'
p935
tp936
Rp937
ag597
(g601
S'I\xc5\xe5\xc4oV\x14@'
p938
tp939
Rp940
ag597
(g601
S'\xfc8\x05\xeb^r%@'
p941
tp942
Rp943
ag597
(g601
S'%\x0c\x1fj\xdd\xc8\x1f@'
p944
tp945
Rp946
ag597
(g601
S'\xde\xd7\xfb\x17\xab\x1c#@'
p947
tp948
Rp949
ag597
(g601
S'\xfd3JK\xff\xb1[@'
p950
tp951
Rp952
ag597
(g601
S'\x1b\x93\xd3!\xc2\x9d @'
p953
tp954
Rp955
a(lp956
g597
(g601
S'\xf0\x8d\xa5~\xe5\x7f1@'
p957
tp958
Rp959
ag597
(g601
S'\x90\x0f\x81v\x18q\x15@'
p960
tp961
Rp962
ag597
(g601
S'\xf8\x11\xb8M\r\xaf\x01\xc0'
p963
tp964
Rp965
ag597
(g601
S' l3\xf7\xc2k\x11\xc0'
p966
tp967
Rp968
ag597
(g601
S'\x88\n\xe9\xf6\x8e\x84\n\xc0'
p969
tp970
Rp971
ag597
(g601
S'\x80\xc7\x94\xed\xb4\x9b\xf8?'
p972
tp973
Rp974
ag597
(g601
S'\xc0\xef\xebc\x1d@\xe6?'
p975
tp976
Rp977
ag597
(g601
S'\x10\xb5p\xd2\xdb\x1b\xfe?'
p978
tp979
Rp980
ag597
(g601
S'@\xe1;]\xdd\x0c#@'
p981
tp982
Rp983
ag597
(g601
S'\xf8\x95\xbfNZ\x12\x0c\xc0'
p984
tp985
Rp986
ag597
(g601
S'\x80\xf3\xcfet\xde\x0f\xc0'
p987
tp988
Rp989
ag597
(g601
S'Xt\x1a6\xd7\xb4\x14@'
p990
tp991
Rp992
ag597
(g601
S'\x80\xd9<\xdfG\xa6\xde\xbf'
p993
tp994
Rp995
ag597
(g601
S'\x00j\xc0&\xc1\xe0\x10\xc0'
p996
tp997
Rp998
ag597
(g601
S'&\x82i\xf7\xe4\x98!\xc0'
p999
tp1000
Rp1001
ag597
(g601
S'@\x9a\x1dGU\x12\xd7?'
p1002
tp1003
Rp1004
ag597
(g601
S'P\xae\x87<\xad#\xf0?'
p1005
tp1006
Rp1007
ag597
(g601
S'p\xca\xe6y\xfe\xaf\x15\xc0'
p1008
tp1009
Rp1010
ag597
(g601
S'\xd8\xceFT\x936\t\xc0'
p1011
tp1012
Rp1013
ag597
(g601
S'\x90\x89EM\xb9\xcf\x10\xc0'
p1014
tp1015
Rp1016
ag597
(g601
S'\x98\xb5|\xea\x9d\xdc\x14\xc0'
p1017
tp1018
Rp1019
ag597
(g601
S'\x00\xc3y\xc2\xac&\xe3?'
p1020
tp1021
Rp1022
ag597
(g601
S'\x98\x8f\xf5\xfd{\xdb\x10\xc0'
p1023
tp1024
Rp1025
ag597
(g601
S'\xac\xd2\x9f\xa1\xa7\xb1\x12@'
p1026
tp1027
Rp1028
ag597
(g601
S'@6y\x7f\xc7\xf9\xfe?'
p1029
tp1030
Rp1031
ag597
(g601
S'\xac\x00,\xe8o\xc1\x11@'
p1032
tp1033
Rp1034
ag597
(g601
S"\x84\xa3\xd7\xc8\xf3U'@"
p1035
tp1036
Rp1037
ag597
(g601
S'Q:\xebh\xe6\x88?@'
p1038
tp1039
Rp1040
ag597
(g601
S'\xa0lV,\xb0\xcf\xf0?'
p1041
tp1042
Rp1043
ag597
(g601
S"\xda\xfe\xc5|\\{'@"
p1044
tp1045
Rp1046
ag597
(g601
S'h\xc1\xd4\xd5N\xc2\n\xc0'
p1047
tp1048
Rp1049
ag597
(g601
S'R~\x92\x002\xc4F@'
p1050
tp1051
Rp1052
ag597
(g601
S'4w\xfc\xcd{\xc9\x1a\xc0'
p1053
tp1054
Rp1055
ag597
(g601
S'\xae\xd0\xa0md5!\xc0'
p1056
tp1057
Rp1058
ag597
(g601
S'\xe4\x85\xf6\x8e\xa9\x08 @'
p1059
tp1060
Rp1061
ag597
(g601
S'\x80\x06\xde6\xf19\xd8\xbf'
p1062
tp1063
Rp1064
ag597
(g601
S'\\\xc4\xbf\x1exB\x18\xc0'
p1065
tp1066
Rp1067
ag597
(g601
S' <\x14A\x1b\x8f\xfa\xbf'
p1068
tp1069
Rp1070
ag597
(g601
S'>\xac,\xe1\x85v%@'
p1071
tp1072
Rp1073
ag597
(g601
S'\x10Z\x867\x15\\\xf9?'
p1074
tp1075
Rp1076
ag597
(g601
S'\x10\xe24\x84\x8f\xab\x06\xc0'
p1077
tp1078
Rp1079
ag597
(g601
S'\xe0$k\xc2\xf1\xde\x12\xc0'
p1080
tp1081
Rp1082
ag597
(g601
S'\xe0\xd7R\xc4\xf3|\xf3?'
p1083
tp1084
Rp1085
ag597
(g601
S'\x90.qkx\xe6\n@'
p1086
tp1087
Rp1088
ag597
(g601
S'\xd0I\xb1\x80\x17\xf7\x07@'
p1089
tp1090
Rp1091
ag597
(g601
S'@\xbfS\x10N\xa5\xe9\xbf'
p1092
tp1093
Rp1094
ag597
(g601
S'\xd0c\xd3\xb9Z\x07\x0e\xc0'
p1095
tp1096
Rp1097
ag597
(g601
S',\x99\x88\x8b"\xe6\x1f@'
p1098
tp1099
Rp1100
ag597
(g601
S'\x8c\x17N\xf3\x9f\xfa\x1a\xc0'
p1101
tp1102
Rp1103
ag597
(g601
S'\xe42;*\xd8\xcdH@'
p1104
tp1105
Rp1106
a(lp1107
cnumpy.core.multiarray
_reconstruct
p1108
(cnumpy
ndarray
p1109
(I0
tp1110
S'b'
p1111
tp1112
Rp1113
(I1
(L1L
tp1114
g601
I00
S'#\x1aU3\xdb\xdb\xe0?'
p1115
tp1116
ba(lp1117
F0.23209254199666537
aF0.6793455781584703
aa(lp1118
F-0.051917402743833684
aF0.29663759191719863
aF0.6354987659716359
aa(lp1119
F0.1138790338827599
aF0.9009504520927958
aF0.08972172673570655
aa(lp1120
F0.15192695445656046
aF0.12434143653110373
aF-0.02776329451075412
aF0.8611557490378827
aa(lp1121
F0.23159536677684725
aF-0.035257027337120515
aF0.014416494483420387
aF0.05159487230150366
aF0.0471218967269071
aF0.6037170133249713
aa(lp1122
F0.0023497321331540683
aF0.711044324062441
aF0.009781134703540237
aF-0.047735155544601005
aF0.0744125296001973
aF0.2716349118889836
aa(lp1123
F-0.02395005080894987
aF0.178174953267311
aF0.3267336592803101
aF0.01272350859729552
aF0.011493844280580959
aF0.10475865055451616
aF0.3484627369808489
aa(lp1124
F-0.001441772894624154
aF0.1459010598258338
aF0.13573568440628767
aF0.27390294872782966
aF-0.08715888064327534
aF0.0
aF0.20064151260160115
aF0.29361454928305075
aa(lp1125
F-0.0
aF0.0
aF0.24388590033636529
aF-0.0
aF-0.0
aF0.7082554335699393
aa(lp1126
F0.09140529904756244
aF0.5399823654852469
aF0.1498912700486014
aF0.22448908590200206
aF0.07030897572507869
aa(lp1127
F0.02828518600584612
aF-0.005028956098307482
aF-0.0
aF0.027464607294055622
aF0.6618799045824759
aF0.023376793055879714
aF0.05853301505177332
aF0.14464787928372402
aa(lp1128
F0.24421253075289515
aF-0.0
aF0.37551641155559407
aF0.21223892230244354
aF-0.0
aF-0.07478459143236117
aF0.2842324118734416
aa(lp1129
F0.3409675565080087
aF0.34145352767451886
aF0.1455108205959531
aF0.1589382782131035
aF0.26913542103620675
aa(lp1130
F0.03777745239724464
aF0.13723888413610702
aF0.14555342026398221
aF-0.13127916203846934
aF0.0
aF0.05688059760593745
aF0.25326256849655066
aF0.05788011855243649
aF0.5768387079843668
aa(lp1131
F0.0
aF0.0
aF0.5359904085923558
aF0.0
aF0.005184461071009542
aF0.1281767720350109
aF0.24739629536343516
aa(lp1132
F0.029414406689400943
aF0.255291662895147
aF0.05906544115529626
aF-0.005302666341148725
aF-0.04759414270799128
aF0.1847753491949354
aF0.38594164246277385
aF-0.011538213224217745
aF0.028514754350257458
aF0.025768911335223594
aF-0.0005960866472629819
aF-0.036780028316113995
aF0.12434490763659499
aa(lp1133
F-0.0
aF0.28952221707316134
aF-0.0
aF0.005683478486729271
aF0.03697569438797337
aF0.010704239056558755
aF0.6825240435643513
aa(lp1134
F-0.06688259038822904
aF0.060411961551121544
aF0.024890099910102676
aF0.07402218517477745
aF-0.12597018873788188
aF0.015643083102587108
aF0.04388935491115287
aF0.3356761651532177
aF0.07880279620121365
aF0.3422662930363766
aF0.26184227354954237
aa(lp1135
F0.205181680309711
aF0.19635694552064267
aF-0.024191758843783082
aF0.08495884814152616
aF0.3416269936309148
aF0.006663192142830438
aF0.005946999525882673
aF0.2566010343303592
aa(lp1136
F0.09410727906299814
aF0.12176521714126678
aF-0.031162851435359545
aF0.12888295727448937
aF0.46369756720559546
aF0.3859320693756972
aF0.05580922905401447
aF-0.07306800349618726
aF0.034330693188092544
aa(lp1137
F-0.0012727777863584793
aF0.032350171144892775
aF-0.00025563494253982714
aF0.03004748466251096
aF0.634976378084993
aF0.0074153120219743966
aF-0.004470171660369609
aF-0.0037111853205803423
aF0.24539752735144654
aF0.0
aF0.03939167441557673
aa(lp1138
F0.1731727561542017
aF-0.0013155481844373733
aF0.3655859248103738
aF0.2548314354061577
aF0.0
aF0.0
aF0.028776981695149233
aF0.2318112896273376
aa(lp1139
F0.0
aF0.0
aF0.0
aF0.04883394997923339
aF0.0
aF-0.0
aF0.6529269850829706
aa(lp1140
F0.6987930325512829
aF-0.04993940914970172
aF0.263096129233728
aF-0.03441122853395775
aF0.012059734182164486
aF0.07176392194665651
aa(lp1141
F-0.015350900397420155
aF0.18030543352725192
aF0.024070654699942583
aF-9.445294429080643e-06
aF-0.027105098597521027
aF0.574142673455914
aF-0.0065382541576848975
aF0.08153472178515318
aF-0.0
aF0.09624479349837063
aF0.0334545902987148
aa(lp1142
F0.4510776099753137
aF-0.0
aF0.0
aF0.3136618972615905
aF-0.0
aF0.1431234019581052
aF-0.04242886601610406
aF0.047329604625508594
aF-0.0
aF-0.027612678862114496
aF-0.03097181136484792
aF0.0
aF0.01405647208953887
aF-0.0748322001001173
aF-0.024184557596444705
aF-0.07995828252562974
aF0.23404037611699408
aa(lp1143
F0.07086833102623562
aF0.03698616824643337
aF0.44505312292951854
aF0.025746111841399383
aa(lp1144
F0.015138291602005633
aF0.13856787600431578
aF0.024178653700330427
aF0.5029086022618479
aF0.0
aF0.03441781502328993
aF0.07263938883546672
aF0.05801549338438743
aF0.1654183143584074
aF0.02944936229815311
aa(lp1145
F0.10041933115048984
aF0.07225366776293722
aF-0.017185389597732154
aF-0.13534400230635424
aF-0.028071664611195906
aF-0.023455370250783994
aF0.022939683641443335
aF-0.12191298863567236
aF0.0041888563491380305
aF-0.017495542567085062
aF-0.03520093548061846
aF0.061710604578279905
aF-0.021096937474199762
aF0.04399922216455292
aF0.18553194594445468
aF0.053995019910165726
aF0.20540582179579644
aF0.020399944509389707
aF-0.15982231882470552
aF-0.05156449009887564
aF0.5485528410929364
aF0.1214338059101425
aa(lp1146
F0.49827888758681543
aF0.439773313581311
aF0.030897338060577567
aF0.05253717506712812
aa(lp1147
F-0.0
aF0.1132494915392487
aF0.0
aF-0.26146980308456713
aF0.0012966536462598096
aF0.1871912746199163
aF0.25035024105306874
aF0.19321567233588935
aF-0.39924896781825514
aF0.16280647321687228
aF-0.3029510741219004
aF-0.0
aF0.0
aF0.0
aF0.12416367531301988
aF-0.13977545376771083
aF-0.03161842578814224
aF0.21117302578847688
aF-0.00019472618912044328
aF-0.11519627037873574
aF0.18061296879732122
aF-0.07570514618927057
aF0.13326258434491606
aF-0.12493456268155101
aF0.0
aF0.20389789514268036
aa(lp1148
F0.08352929521727712
aF-0.0
aF0.0
aF0.0578389443926169
aF0.0
aF-0.0
aF0.0
aF-0.0
aF0.14543694146539027
aF-0.0781850846609229
aF-0.08605793915933917
aF0.05224420785729595
aF-0.028264017846896125
aF0.1387504899159113
aF0.0
aF0.043599000493150734
aF-0.03175656657957579
aF-0.018126667525137554
aF0.2545255615286364
aF-0.059455771657837685
aF-0.016779960414895462
aF-0.0
aF0.0
aF0.10852847565033806
aF0.49437816992633044
aa(lp1149
F-0.05227494004824838
aF-0.01615177578190089
aF0.28014093150755454
aF0.18419418079887098
aF0.16178223819413315
aF-0.03514555138677348
aF0.029962328038813667
aF0.10147889413626882
aF0.036980509859532606
aF0.3586547627473596
aa(lp1150
F-0.07208708521358755
aF0.03581661432167147
aF-0.0
aF-0.0
aF-0.0
aF0.6432080384453962
aF0.003475369890769796
aF0.06462487754231422
aF-0.002864390022676963
aF0.2105475690293349
aa(lp1151
F0.01794051543549117
aF0.07992361409516185
aF0.4286008465471719
aF0.007981989512525624
aF0.4451885981992703
aF0.05063222895693986
aF0.016918090998664936
aF0.0
aa(lp1152
F0.06615330473672519
aF0.0
aF-0.0
aF0.0428552802559897
aF-0.03933589082102692
aF0.0371974140118736
aF0.015319093096398376
aF0.6650822974388736
aF-0.07876334437139318
aF-0.0
aF0.207172698806137
aF0.14916749070785185
aF0.02854296192626266
aF-0.05538244395055713
aF0.05014710870747778
aF0.011494249175991317
aF0.047166209842159114
aF-0.01703440876927078
aF0.0
aa(lp1153
F-0.039575968229394305
aF0.052149284820390794
aF0.04013591162209048
aF0.03272746674493853
aF-0.024264944514789367
aF0.016829932172832598
aF-0.04740198978152185
aF0.05708278909728571
aF-0.024154384740516167
aF-0.001967155567937243
aF0.042485902804797616
aF0.004867651420053526
aF-0.11929013158891366
aF0.379914369361519
aF-0.02162290219907491
aF0.08780041510100646
aF-0.0022236903993286027
aF0.039773196604567324
aF-0.0023173660016797518
aF-0.023778222165555394
aF-0.0
aF-0.0007627276751903501
aF0.5988449794686967
aF-0.057950774599157956
aF-0.06511503667916844
aF0.07819472211497679
aa(lp1154
F0.004194230670904258
aF0.18843559795153933
aF0.006046044443911277
aF0.010005673985918211
aF0.0
aF0.05529001522455717
aF0.014438169840820393
aF-0.01946053013859254
aF0.1104099450981139
aF0.0
aF0.052443365581122635
aF0.026804964465722333
aF0.05213834952996556
aF-0.0
aF0.05815422263616736
aF0.30488946885322865
aa(lp1155
F0.00046405140508138667
aF0.021315235388274317
aF0.0
aF0.02520354985939013
aF-0.0025832797765470475
aF0.0
aF0.2352739432034
aF0.0
aF0.590858332542035
aF0.02036672051445046
aF0.01041956860963481
aF0.0
aF0.06332900925787283
aa(lp1156
F0.21474469090111
aF-0.07283467311726222
aF0.0358541492139036
aF0.0375600323051281
aF0.0908675636777553
aF0.0
aF0.6540727408546877
aF0.1389517217319404
aF0.0
aF0.05423314546202785
aF-0.0005308603737716422
aF0.005820053570173668
aF0.08078958711818959
aa(lp1157
F-0.01765883373726188
aF-0.024405960637170473
aF0.12333347890258838
aF-0.1287836363344426
aF-0.05669571867180765
aF0.16430051276257254
aF0.5605415786054678
aF0.200819613532547
aF0.004929668955216123
aF-0.01293721632116256
aF0.11727326397023767
aF0.024214855271845276
aF-0.013780935318872159
aF0.0895820175561257
aF-0.02700666819102068
aF0.07285710321646398
aF0.0
aF0.0
aF-0.016381691105638512
aF-0.03290607242314888
aF-0.006775611640045523
aF0.04361433721457828
aF-0.006836957298780719
aF-0.0780116031957455
aF-0.0036662973406439707
aF-0.0
aF0.05547659683560423
aF0.0
aF0.05485050384248547
aF0.0
aF-0.007135325519484009
aF0.0
aF-0.01825226670634702
aF-0.0
aF0.0012284910061025065
aF0.05113839738789921
aa(lp1158
F-0.01675810292372985
aF0.09810835352044361
aF-0.0
aF-0.11475747938867684
aF0.024920230576338572
aF-0.05624571199967269
aF0.0045697835102256135
aF0.8275331887744469
aF0.013212571750278393
aF0.01924877462065041
aF0.10766807859824695
aF0.10133596904257322
aa(lp1159
F0.04939826971068914
aF-0.02604204051932283
aF-0.013876709924983991
aF0.004630043702887799
aF0.15917152765103207
aF0.13806879883777193
aF0.023990234167823105
aF0.29762120595934344
aF0.5089816498783801
aF0.061759672335408876
aF0.05627272150985807
aF0.007434437312893075
aF-0.03048111578760566
aF0.03036992621129986
aF-0.01273703390323628
aF-0.024436964987228842
aF0.08639263395582544
aF-0.07114360384739979
aF-0.035768038095591086
aF-0.03473674741364492
aF0.06019098178545361
aF-0.008328077961658848
aF-0.15515061423950965
aF-0.057894019812982145
aF0.0
aF-0.060108532881003124
aF0.0
aF0.022316100487043387
aF0.01940980205478385
aa(lp1160
F-0.0458964745134181
aF0.09548573343270234
aF-0.037201397376167455
aF0.09337409293491937
aF-0.0
aF0.4170874727450627
aF0.460729260110197
aF-0.011399020712741287
aF0.014430618925039683
aF-0.01891414035708376
aF0.006123368309629441
aa(lp1161
F-0.04972266100131414
aF0.001159409675621311
aF0.03736018688404025
aF0.13243004957498705
aF0.005854233195014782
aF0.009547156802966831
aF0.006438457015963343
aF0.0336079843035202
aF0.10812424739609883
aF-0.010100102373675176
aF0.01488738801885887
aF0.32455319790381043
aF0.0009462547535607803
aF-0.031027711306828937
aF0.4402473948215802
aa(lp1162
F0.323730511302894
aF0.005340701420180713
aF-0.06986190906637636
aF0.06004918130809546
aF0.012437857660018314
aF-0.0003113287167334127
aF-0.0
aF-0.00038823650327986947
aF0.11732178251278434
aF0.18428746703215473
aF-0.059793216264394655
aF0.11131310984071448
aF0.10498709012939487
aF0.036032979278751306
aF0.011354396519167222
aF0.09611705470602716
aa(lp1163
F0.1252906106869597
aF0.20128242778221972
aF0.460016032457854
aF0.011597690193612478
aF0.09181214100224784
aa(lp1164
F0.002363850720303516
aF-0.005000761905016148
aF-0.003532472905013553
aF0.033904231676201414
aF0.0494791295960549
aF0.05723129213677519
aF-0.022335398971338967
aF0.9487743041172046
aa(lp1165
F0.0005609749029334249
aF0.010988725397109139
aF0.0017578719817709265
aF0.006664255241800186
aF0.11670327149559784
aF0.0
aF0.009477429506825149
aF0.09617035582070543
aF0.006838424829168118
aF0.18807661866480813
aF0.06459854680491699
aF0.015420035044355336
aa(lp1166
g597
(g601
S'\x151\xc0\xdb\xaf\xfbG@'
p1167
tp1168
Rp1169
ag597
(g601
S'\xad\xca\xbc\xfc\xeb%C@'
p1170
tp1171
Rp1172
ag597
(g601
S'G\xd8\xd2,\xe1j7@'
p1173
tp1174
Rp1175
ag597
(g601
S'm\x01s\xa7B`0@'
p1176
tp1177
Rp1178
ag597
(g601
S'q{\xd4d\xaczB@'
p1179
tp1180
Rp1181
ag597
(g601
S'\\\x95\xf7\xa20t)@'
p1182
tp1183
Rp1184
ag597
(g601
S'\x08l8\xb4m\xba\x1e@'
p1185
tp1186
Rp1187
ag597
(g601
S'\xe8 \x81v\x89\xcc+@'
p1188
tp1189
Rp1190
ag597
(g601
S'S^E\xc8=\xe93@'
p1191
tp1192
Rp1193
ag597
(g601
S'\xb4?\xf5H\x91\x112@'
p1194
tp1195
Rp1196
ag597
(g601
S'\xef\xab\x9a\xba\x8a\x80!@'
p1197
tp1198
Rp1199
ag597
(g601
S'\x8fz\xeb\xeb\xf2\xac\xff?'
p1200
tp1201
Rp1202
ag597
(g601
S'8\x18\x105s%F@'
p1203
tp1204
Rp1205
ag597
(g601
S'\x0b(\xc4\xdav\xb6/@'
p1206
tp1207
Rp1208
ag597
(g601
S'\x84\xd3j\x9d\xddn;@'
p1209
tp1210
Rp1211
ag597
(g601
S'\x17\x8e\xd6\x91\xed\x1d\x1e@'
p1212
tp1213
Rp1214
ag597
(g601
S'\xa8)\xc5\xc9\xb4\xaf\x08@'
p1215
tp1216
Rp1217
ag597
(g601
S'P\xcc\xe3\x99\x81\xd58@'
p1218
tp1219
Rp1220
ag597
(g601
S'\xe0\xa4\xfc\xbdv\xd5%@'
p1221
tp1222
Rp1223
ag597
(g601
S"\xe3m\x16\t\x16w'@"
p1224
tp1225
Rp1226
ag597
(g601
S'\x0fC\x7f\x0e\x04a.@'
p1227
tp1228
Rp1229
ag597
(g601
S'2|\xceQVD\xf7?'
p1230
tp1231
Rp1232
ag597
(g601
S'}\xa9\x85\xa8\xfa\xd9!@'
p1233
tp1234
Rp1235
ag597
(g601
S'\xc2\xab\xe5\xd8=\xeeF@'
p1236
tp1237
Rp1238
ag597
(g601
S'\x010\xed\x10\xdd*.@'
p1239
tp1240
Rp1241
ag597
(g601
S'\xaf\x80\x93L\xb3\xaf\xf7?'
p1242
tp1243
Rp1244
ag597
(g601
S"\xca\xe9\xc5\x16'0+@"
p1245
tp1246
Rp1247
ag597
(g601
S'\x00u\xe9?\x92x*@'
p1248
tp1249
Rp1250
ag597
(g601
S'\x18i\xc1\xe8H&!@'
p1251
tp1252
Rp1253
ag597
(g601
S'\x1d\x810\xd8?\xad\x08@'
p1254
tp1255
Rp1256
ag597
(g601
S'\x12-\x199\xde\x1d\x10@'
p1257
tp1258
Rp1259
ag597
(g601
S'\xeb\x99n~j\n\x14@'
p1260
tp1261
Rp1262
ag597
(g601
S'\x12\xa6Y\xa7\xaaf\x14@'
p1263
tp1264
Rp1265
ag597
(g601
S'\xd2B9\xcf\x02\xc7\x1b@'
p1266
tp1267
Rp1268
ag597
(g601
S'WNc\x1d\x97i\x1d@'
p1269
tp1270
Rp1271
ag597
(g601
S'\xc3G\x1f\x7f\xd4\xd8\x18@'
p1272
tp1273
Rp1274
ag597
(g601
S'\x91qcHFt\x10@'
p1275
tp1276
Rp1277
ag597
(g601
S'\xec\x90a0P\xb1\xf8?'
p1278
tp1279
Rp1280
ag597
(g601
S'\xa7\x1c\x8dE\x04\x04\x1f@'
p1281
tp1282
Rp1283
ag597
(g601
S'G\x07\x84d\x00\t\xec?'
p1284
tp1285
Rp1286
ag597
(g601
S'%\xfd@\xe3\x89\xeb\x1f@'
p1287
tp1288
Rp1289
ag597
(g601
S'[W\x04\xdf\x9a%\xff?'
p1290
tp1291
Rp1292
ag597
(g601
S'\xac\xdb-\xb0\xda\xf7\x17@'
p1293
tp1294
Rp1295
ag597
(g601
S'W\x0f\xe1\xc2\x8c\xad\x03@'
p1296
tp1297
Rp1298
ag597
(g601
S'h\x13\x96\x89;&\x14@'
p1299
tp1300
Rp1301
ag597
(g601
S'\xac$\x06k\x12\xb6\x13@'
p1302
tp1303
Rp1304
ag597
(g601
S'\xd9*\xf5\xdb\x98T\x1e@'
p1305
tp1306
Rp1307
ag597
(g601
S'\xc2\xd9A\xa5\xd1Y"@'
p1308
tp1309
Rp1310
ag597
(g601
S'[\xef\x12\xee[p\x19@'
p1311
tp1312
Rp1313
ag597
(g601
S'\xf5\xc7y+\xe9\xd9 @'
p1314
tp1315
Rp1316
atp1317
.