((dp0
I0
(lp1
(I0
I-1
tp2
asI1
(lp3
(I0
I0
tp4
a(I1
I-1
tp5
asI2
(lp6
(I0
I0
tp7
a(I1
I0
tp8
a(I2
I-1
tp9
asI3
(lp10
(I0
I0
tp11
a(I2
I0
tp12
a(I3
I-1
tp13
asI4
(lp14
(I0
I0
tp15
a(I3
I0
tp16
a(I4
I-1
tp17
asI5
(lp18
(I1
I0
tp19
a(I3
I0
tp20
a(I4
I0
tp21
a(I5
I-1
tp22
asI6
(lp23
(I0
I0
tp24
a(I2
I0
tp25
a(I3
I0
tp26
a(I4
I0
tp27
a(I5
I0
tp28
a(I6
I-1
tp29
asI7
(lp30
(I0
I0
tp31
a(I2
I0
tp32
a(I3
I0
tp33
a(I4
I0
tp34
a(I5
I0
tp35
a(I6
I0
tp36
a(I7
I-1
tp37
asI8
(lp38
(I0
I0
tp39
a(I2
I0
tp40
a(I3
I0
tp41
a(I4
I0
tp42
a(I5
I0
tp43
a(I6
I0
tp44
a(I7
I0
tp45
a(I8
I-1
tp46
asI9
(lp47
(I0
I0
tp48
a(I1
I0
tp49
a(I2
I0
tp50
a(I3
I0
tp51
a(I4
I0
tp52
a(I5
I0
tp53
a(I7
I0
tp54
a(I8
I0
tp55
a(I9
I-1
tp56
asI10
(lp57
(I1
I0
tp58
a(I2
I0
tp59
a(I3
I0
tp60
a(I4
I0
tp61
a(I5
I0
tp62
a(I7
I0
tp63
a(I8
I0
tp64
a(I9
I0
tp65
a(I10
I-1
tp66
asI11
(lp67
(I5
I0
tp68
a(I10
I0
tp69
a(I11
I-1
tp70
asI12
(lp71
(I7
I0
tp72
a(I8
I0
tp73
a(I10
I0
tp74
a(I11
I0
tp75
a(I12
I-1
tp76
asI13
(lp77
(I0
I0
tp78
a(I2
I0
tp79
a(I7
I0
tp80
a(I11
I0
tp81
a(I12
I0
tp82
a(I13
I-1
tp83
asI14
(lp84
(I0
I0
tp85
a(I1
I0
tp86
a(I4
I0
tp87
a(I5
I0
tp88
a(I6
I0
tp89
a(I7
I0
tp90
a(I8
I0
tp91
a(I9
I0
tp92
a(I10
I0
tp93
a(I11
I0
tp94
a(I12
I0
tp95
a(I13
I0
tp96
a(I14
I-1
tp97
asI15
(lp98
(I0
I0
tp99
a(I1
I0
tp100
a(I3
I0
tp101
a(I4
I0
tp102
a(I5
I0
tp103
a(I6
I0
tp104
a(I7
I0
tp105
a(I8
I0
tp106
a(I9
I0
tp107
a(I10
I0
tp108
a(I11
I0
tp109
a(I12
I0
tp110
a(I14
I0
tp111
a(I15
I-1
tp112
asI16
(lp113
(I3
I0
tp114
a(I9
I0
tp115
a(I11
I0
tp116
a(I12
I0
tp117
a(I13
I0
tp118
a(I15
I0
tp119
a(I16
I-1
tp120
asI17
(lp121
(I0
I0
tp122
a(I1
I0
tp123
a(I2
I0
tp124
a(I3
I0
tp125
a(I6
I0
tp126
a(I7
I0
tp127
a(I8
I0
tp128
a(I9
I0
tp129
a(I10
I0
tp130
a(I11
I0
tp131
a(I12
I0
tp132
a(I14
I0
tp133
a(I15
I0
tp134
a(I17
I-1
tp135
asI18
(lp136
(I0
I0
tp137
a(I1
I0
tp138
a(I7
I0
tp139
a(I9
I0
tp140
a(I11
I0
tp141
a(I13
I0
tp142
a(I17
I0
tp143
a(I18
I-1
tp144
asI19
(lp145
(I0
I0
tp146
a(I7
I0
tp147
a(I15
I0
tp148
a(I17
I0
tp149
a(I18
I0
tp150
a(I19
I-1
tp151
asI20
(lp152
(I0
I0
tp153
a(I11
I0
tp154
a(I15
I0
tp155
a(I17
I0
tp156
a(I19
I0
tp157
a(I20
I-1
tp158
asI21
(lp159
(I7
I0
tp160
a(I13
I0
tp161
a(I17
I0
tp162
a(I20
I0
tp163
a(I21
I-1
tp164
asI22
(lp165
(I6
I0
tp166
a(I7
I0
tp167
a(I11
I0
tp168
a(I17
I0
tp169
a(I20
I0
tp170
a(I21
I0
tp171
a(I22
I-1
tp172
asI23
(lp173
(I2
I0
tp174
a(I6
I0
tp175
a(I9
I0
tp176
a(I11
I0
tp177
a(I13
I0
tp178
a(I16
I0
tp179
a(I22
I0
tp180
a(I23
I-1
tp181
asI24
(lp182
(I0
I0
tp183
a(I9
I0
tp184
a(I10
I0
tp185
a(I11
I0
tp186
a(I12
I0
tp187
a(I13
I0
tp188
a(I15
I0
tp189
a(I17
I0
tp190
a(I20
I0
tp191
a(I21
I0
tp192
a(I22
I0
tp193
a(I23
I0
tp194
a(I24
I-1
tp195
asI25
(lp196
(I5
I0
tp197
a(I6
I0
tp198
a(I9
I0
tp199
a(I11
I0
tp200
a(I17
I0
tp201
a(I18
I0
tp202
a(I19
I0
tp203
a(I23
I0
tp204
a(I24
I0
tp205
a(I25
I-1
tp206
asI26
(lp207
(I5
I0
tp208
a(I7
I0
tp209
a(I13
I0
tp210
a(I15
I0
tp211
a(I17
I0
tp212
a(I18
I0
tp213
a(I22
I0
tp214
a(I24
I0
tp215
a(I26
I-1
tp216
asI27
(lp217
(I0
I0
tp218
a(I15
I0
tp219
a(I17
I0
tp220
a(I18
I0
tp221
a(I19
I0
tp222
a(I20
I0
tp223
a(I24
I0
tp224
a(I25
I0
tp225
a(I26
I0
tp226
a(I27
I-1
tp227
asI28
(lp228
(I0
I0
tp229
a(I15
I0
tp230
a(I17
I0
tp231
a(I20
I0
tp232
a(I26
I0
tp233
a(I27
I0
tp234
a(I28
I-1
tp235
asI29
(lp236
(I0
I0
tp237
a(I3
I0
tp238
a(I4
I0
tp239
a(I5
I0
tp240
a(I6
I0
tp241
a(I8
I0
tp242
a(I9
I0
tp243
a(I10
I0
tp244
a(I11
I0
tp245
a(I12
I0
tp246
a(I13
I0
tp247
a(I15
I0
tp248
a(I16
I0
tp249
a(I17
I0
tp250
a(I25
I0
tp251
a(I26
I0
tp252
a(I28
I0
tp253
a(I29
I-1
tp254
asI30
(lp255
(I8
I0
tp256
a(I11
I0
tp257
a(I13
I0
tp258
a(I15
I0
tp259
a(I16
I0
tp260
a(I17
I0
tp261
a(I18
I0
tp262
a(I21
I0
tp263
a(I23
I0
tp264
a(I26
I0
tp265
a(I28
I0
tp266
a(I29
I0
tp267
a(I30
I-1
tp268
asI31
(lp269
(I21
I0
tp270
a(I24
I0
tp271
a(I31
I-1
tp272
asI32
(lp273
(I3
I0
tp274
a(I9
I0
tp275
a(I11
I0
tp276
a(I13
I0
tp277
a(I17
I0
tp278
a(I19
I0
tp279
a(I25
I0
tp280
a(I26
I0
tp281
a(I29
I0
tp282
a(I30
I0
tp283
a(I32
I-1
tp284
asI33
(lp285
(I2
I0
tp286
a(I6
I0
tp287
a(I10
I0
tp288
a(I13
I0
tp289
a(I18
I0
tp290
a(I20
I0
tp291
a(I21
I0
tp292
a(I23
I0
tp293
a(I25
I0
tp294
a(I31
I0
tp295
a(I32
I0
tp296
a(I33
I-1
tp297
asI34
(lp298
(I17
I0
tp299
a(I26
I0
tp300
a(I33
I0
tp301
a(I34
I-1
tp302
asI35
(lp303
(I0
I0
tp304
a(I7
I0
tp305
a(I11
I0
tp306
a(I17
I0
tp307
a(I18
I0
tp308
a(I20
I0
tp309
a(I29
I0
tp310
a(I32
I0
tp311
a(I33
I0
tp312
a(I34
I0
tp313
a(I35
I-1
tp314
asI36
(lp315
(I0
I0
tp316
a(I7
I0
tp317
a(I11
I0
tp318
a(I16
I0
tp319
a(I18
I0
tp320
a(I30
I0
tp321
a(I32
I0
tp322
a(I33
I0
tp323
a(I34
I0
tp324
a(I36
I-1
tp325
asI37
(lp326
(I3
I0
tp327
a(I17
I0
tp328
a(I32
I0
tp329
a(I34
I0
tp330
a(I36
I0
tp331
a(I37
I-1
tp332
asI38
(lp333
(I3
I0
tp334
a(I4
I0
tp335
a(I6
I0
tp336
a(I7
I0
tp337
a(I10
I0
tp338
a(I11
I0
tp339
a(I12
I0
tp340
a(I13
I0
tp341
a(I16
I0
tp342
a(I18
I0
tp343
a(I19
I0
tp344
a(I20
I0
tp345
a(I21
I0
tp346
a(I22
I0
tp347
a(I24
I0
tp348
a(I27
I0
tp349
a(I28
I0
tp350
a(I29
I0
tp351
a(I31
I0
tp352
a(I32
I0
tp353
a(I33
I0
tp354
a(I34
I0
tp355
a(I36
I0
tp356
a(I37
I0
tp357
a(I38
I-1
tp358
asI39
(lp359
(I3
I0
tp360
a(I7
I0
tp361
a(I11
I0
tp362
a(I17
I0
tp363
a(I20
I0
tp364
a(I30
I0
tp365
a(I34
I0
tp366
a(I36
I0
tp367
a(I37
I0
tp368
a(I39
I-1
tp369
asI40
(lp370
(I17
I0
tp371
a(I21
I0
tp372
a(I38
I0
tp373
a(I40
I-1
tp374
asI41
(lp375
(I3
I0
tp376
a(I11
I0
tp377
a(I17
I0
tp378
a(I26
I0
tp379
a(I36
I0
tp380
a(I37
I0
tp381
a(I38
I0
tp382
a(I40
I0
tp383
a(I41
I-1
tp384
asI42
(lp385
(I5
I0
tp386
a(I6
I0
tp387
a(I10
I0
tp388
a(I13
I0
tp389
a(I17
I0
tp390
a(I21
I0
tp391
a(I24
I0
tp392
a(I29
I0
tp393
a(I32
I0
tp394
a(I34
I0
tp395
a(I36
I0
tp396
a(I37
I0
tp397
a(I38
I0
tp398
a(I39
I0
tp399
a(I41
I0
tp400
a(I42
I-1
tp401
asI43
(lp402
(I17
I0
tp403
a(I40
I0
tp404
a(I41
I0
tp405
a(I42
I0
tp406
a(I43
I-1
tp407
asI44
(lp408
(I11
I0
tp409
a(I18
I0
tp410
a(I34
I0
tp411
a(I40
I0
tp412
a(I43
I0
tp413
a(I44
I-1
tp414
asI45
(lp415
(I7
I0
tp416
a(I13
I0
tp417
a(I17
I0
tp418
a(I26
I0
tp419
a(I30
I0
tp420
a(I32
I0
tp421
a(I36
I0
tp422
a(I40
I0
tp423
a(I41
I0
tp424
a(I44
I0
tp425
a(I45
I-1
tp426
asI46
(lp427
(I5
I0
tp428
a(I17
I0
tp429
a(I19
I0
tp430
a(I32
I0
tp431
a(I34
I0
tp432
a(I44
I0
tp433
a(I45
I0
tp434
a(I46
I-1
tp435
asI47
(lp436
(I11
I0
tp437
a(I17
I0
tp438
a(I45
I0
tp439
a(I47
I-1
tp440
asI48
(lp441
(I0
I0
tp442
a(I3
I0
tp443
a(I5
I0
tp444
a(I6
I0
tp445
a(I7
I0
tp446
a(I8
I0
tp447
a(I11
I0
tp448
a(I13
I0
tp449
a(I17
I0
tp450
a(I20
I0
tp451
a(I25
I0
tp452
a(I27
I0
tp453
a(I28
I0
tp454
a(I29
I0
tp455
a(I31
I0
tp456
a(I32
I0
tp457
a(I34
I0
tp458
a(I35
I0
tp459
a(I36
I0
tp460
a(I38
I0
tp461
a(I39
I0
tp462
a(I40
I0
tp463
a(I43
I0
tp464
a(I45
I0
tp465
a(I46
I0
tp466
a(I47
I0
tp467
a(I48
I-1
tp468
asI49
(lp469
(I6
I0
tp470
a(I7
I0
tp471
a(I13
I0
tp472
a(I17
I0
tp473
a(I18
I0
tp474
a(I21
I0
tp475
a(I32
I0
tp476
a(I43
I0
tp477
a(I44
I0
tp478
a(I45
I0
tp479
a(I48
I0
tp480
a(I49
I-1
tp481
as(lp482
cnumpy.core.multiarray
scalar
p483
(cnumpy
dtype
p484
(S'f8'
p485
I0
I1
tp486
Rp487
(I3
S'<'
p488
NNNI-1
I-1
I0
tp489
bS'E\x92\xde\x878\\8@'
p490
tp491
Rp492
ag483
(g487
S'\x18\x922\xfd\xdc\xad\x19@'
p493
tp494
Rp495
ag483
(g487
S'\xb4\xd4J+\xda(\x1c\xc0'
p496
tp497
Rp498
ag483
(g487
S'\xce\xa0\xc7\xf1\xc0\xfa%\xc0'
p499
tp500
Rp501
ag483
(g487
S'Y\x95\xb6s\x85E%@'
p502
tp503
Rp504
ag483
(g487
S'\x80u\xd0\xad\x9b\xe7\xc1?'
p505
tp506
Rp507
ag483
(g487
S'\x00\xae\xbe\x8d\xc6\xcd\x01\xc0'
p508
tp509
Rp510
ag483
(g487
S'\xe0\xe5\x85\xf6\xf3\xc5\xf2\xbf'
p511
tp512
Rp513
ag483
(g487
S'0\x1fU&\xdct\x06@'
p514
tp515
Rp516
ag483
(g487
S"p\x06:'\xb7(\x06@"
p517
tp518
Rp519
ag483
(g487
S'\x80c:\xe9H{\xe8\xbf'
p520
tp521
Rp522
ag483
(g487
S'0f\x16-&\xbe\xf2?'
p523
tp524
Rp525
ag483
(g487
S'\x87\xed97\xe5t&@'
p526
tp527
Rp528
ag483
(g487
S'\xf8 *\xc8\x17\x936@'
p529
tp530
Rp531
ag483
(g487
S'\xab\xf5\xbdp\xc3]"@'
p532
tp533
Rp534
ag483
(g487
S'\xbd\x89\xfd\xad\x1c~9@'
p535
tp536
Rp537
ag483
(g487
S'H\xc1G\xf2\x9a\xf2\x1b@'
p538
tp539
Rp540
ag483
(g487
S'\xf0c]\xaalt&\xc0'
p541
tp542
Rp543
ag483
(g487
S'\x80I\xa6\x7f\x8b%\xd4?'
p544
tp545
Rp546
ag483
(g487
S'`\x8a 7Z\xd9\xfa?'
p547
tp548
Rp549
ag483
(g487
S'\x8a\xae\x9a@\xcf*2@'
p550
tp551
Rp552
ag483
(g487
S'\xc0\x08\xa8f\xfda\xfe\xbf'
p553
tp554
Rp555
ag483
(g487
S'\xaed\x11\xad\xfd\xd5$@'
p556
tp557
Rp558
ag483
(g487
S'\xd2\xe8\xcdj#\xa5!@'
p559
tp560
Rp561
ag483
(g487
S'\xa0>*K4s\xf0?'
p562
tp563
Rp564
ag483
(g487
S'\xf4\xf3\xfe\xceC\x19\x16@'
p565
tp566
Rp567
ag483
(g487
S'\x00E\xa1\x89\xd1t\xcc\xbf'
p568
tp569
Rp570
ag483
(g487
S'\xf0\x19/\xb6\x1dw\x04@'
p571
tp572
Rp573
ag483
(g487
S'@\xfd\x86\xd3\x10\xd5\xf6\xbf'
p574
tp575
Rp576
ag483
(g487
S'\x00\xcf\x19\x9e$\xc9"@'
p577
tp578
Rp579
ag483
(g487
S'\xa0,\xad\xaf\x98\xf23@'
p580
tp581
Rp582
ag483
(g487
S'k\x98\x9a\xc4\x8b\xc43@'
p583
tp584
Rp585
ag483
(g487
S'\x18\xbb\x1b{Dk\x0f\xc0'
p586
tp587
Rp588
ag483
(g487
S'h\xebh9\xec\xcd\x0f@'
p589
tp590
Rp591
ag483
(g487
S'\x83\xbd\xf5\xae\xd9\xfe7@'
p592
tp593
Rp594
ag483
(g487
S'R\xd8_Ti\x02 @'
p595
tp596
Rp597
ag483
(g487
S'\xa5>{\xc0ZD8@'
p598
tp599
Rp600
ag483
(g487
S"P\x19\x90\xf7'E\xfd?"
p601
tp602
Rp603
ag483
(g487
S'\x8c\xdc4\xb60\xed%\xc0'
p604
tp605
Rp606
ag483
(g487
S'\\\xe3\xa9\xf8\x9eE\x16@'
p607
tp608
Rp609
ag483
(g487
S'\xb6\xdbU4\xbf\x0e=@'
p610
tp611
Rp612
ag483
(g487
S'\xe0>\x88u\x97m,@'
p613
tp614
Rp615
ag483
(g487
S'\x08\xf1;^\xcb\xb5\x04\xc0'
p616
tp617
Rp618
ag483
(g487
S'\xdcgm\xd9\x9at\x1b\xc0'
p619
tp620
Rp621
ag483
(g487
S'&\r\xe7y\x0e\x13*@'
p622
tp623
Rp624
ag483
(g487
S'\x88n\xc8\xe3"\xfd\x00@'
p625
tp626
Rp627
ag483
(g487
S'(&\x0c\xa4\xc0\x1c\x11@'
p628
tp629
Rp630
ag483
(g487
S'\x95\xce3\xe3U\x176@'
p631
tp632
Rp633
ag483
(g487
S'\xfezSZ\xa2s!\xc0'
p634
tp635
Rp636
ag483
(g487
S'PKrQ\xdfc\x01@'
p637
tp638
Rp639
a(lp640
(lp641
a(lp642
F0.6960269170953144
aa(lp643
F0.1874148701736637
aF1.1337776386266813
aa(lp644
F0.0
aF1.455765119564357
aa(lp645
F0.0
aF0.5337826122934722
aa(lp646
F-0.17608002145990637
aF0.7901648539518499
aF0.375330324419675
aa(lp647
F0.4743720349143323
aF-1.4476953585694416
aF-0.09158576080021838
aF1.5363147211788428
aF0.6573073097739897
aa(lp648
F-0.0
aF0.09518606525948978
aF-0.5897158574518179
aF0.14327664801543208
aF0.41607248584452955
aF1.0076586749599663
aa(lp649
F0.23658811482188813
aF0.016613375906112417
aF0.0
aF0.009217698225509106
aF0.0
aF0.1736301468911296
aF0.42343260286393963
aa(lp650
F1.1321321227920982
aF-0.49306626026632216
aF0.004277313734583057
aF-2.1215293482833215
aF-1.034725195529263
aF1.3457237702291516
aF-0.2594239408137581
aF2.339717232267801
aa(lp651
F-0.2482453404896307
aF0.5247107395235696
aF0.027117256118967474
aF-0.9637991276709237
aF0.012944907881539172
aF0.11386036873352738
aF0.46531954331029657
aF1.0684787547248409
aa(lp652
F0.654629744688364
aF0.2858548778786249
aa(lp653
F-0.06041233936645695
aF-0.0029213243742189665
aF0.5328486892822686
aF0.046308062974992424
aa(lp654
F0.0
aF0.0
aF0.0
aF0.0
aF0.0
aa(lp655
F0.0
aF0.07415653714129664
aF0.142844172674951
aF0.003459367336165947
aF0.19288358607111736
aF-0.09898673667444274
aF-0.35317693918490534
aF0.26110072720432365
aF-0.028988031370849494
aF-0.1684589238839383
aF0.0
aF0.5730664557010914
aa(lp656
F0.0
aF-0.0
aF-0.0
aF-0.0
aF-0.0
aF0.0
aF0.0
aF0.0
aF0.0
aF0.0
aF-0.0
aF0.0
aF0.0
aa(lp657
F-0.016925250932057143
aF0.11539607575551622
aF-0.0
aF0.0
aF0.17699833765664708
aF0.4509750996736048
aa(lp658
F0.32787678808772136
aF-0.14757739846884033
aF0.050193468382057724
aF-0.3453064518192717
aF-0.9722736762032628
aF0.7168523797100402
aF0.7522716369308478
aF0.3709206157219162
aF0.31012266390683974
aF0.19762527016724596
aF1.914915317728334
aF-2.0698310147887833
aF0.5235635340247902
aa(lp659
F0.02733282385996712
aF0.06107699366007129
aF-0.04176644521741963
aF-0.029202753548912243
aF0.17940099062137801
aF0.07836430215661694
aF0.7276849700604584
aa(lp660
F0.011594099095792907
aF-0.0
aF0.3364237776061054
aF0.09974610326567017
aF0.5120427213216054
aa(lp661
F0.0
aF-0.0
aF0.09532836220906174
aF0.2934038115367135
aF0.0
aa(lp662
F0.04990447195448915
aF-0.07170333656463321
aF0.07374581499913048
aF1.0397715823884737
aa(lp663
F-0.029940128814641385
aF-0.0
aF-0.2261306886991366
aF-0.041098897258684465
aF0.42923727298227543
aF0.3836272784744001
aa(lp664
F-0.0
aF0.049877821123013685
aF0.019728668641508563
aF-0.16241694032627033
aF-0.026512575029769152
aF0.0
aF0.7545623642140061
aa(lp665
F0.0028928652819024433
aF-0.05851091713033385
aF-0.13956316880835246
aF-0.01693329199686311
aF-0.10307285976705795
aF-0.08590642247874099
aF0.10614465751310834
aF-0.0
aF0.24493273991573095
aF0.36015146518363544
aF0.2055396465370205
aF0.3711291344951136
aa(lp666
F-0.0
aF0.0
aF0.0
aF-0.06084850196762625
aF0.20725305448286394
aF0.0
aF0.0
aF0.1822807078608217
aF0.42897876828034076
aa(lp667
F-0.0
aF-0.024018348856703054
aF-0.08918867488309366
aF0.18145741698648124
aF-0.08563339888573178
aF-0.021759248346194592
aF0.4834578243848239
aF0.5436229396053104
aa(lp668
F0.0
aF0.0
aF0.09386949374604144
aF0.0
aF0.0
aF0.1122356516343993
aF0.07718767747732361
aF0.31718549445837185
aF0.2773723979713245
aa(lp669
F0.008973546573765936
aF0.06650680463678336
aF0.00784614495423764
aF0.012728649548978585
aF0.37332959375093394
aF0.590753191548441
aa(lp670
F0.0
aF-0.0
aF-0.0
aF-0.015454176153025752
aF-0.0
aF-0.0
aF-0.0
aF0.0
aF-0.0
aF0.0
aF0.0
aF0.05279104175832077
aF0.0
aF0.004799918379393581
aF0.0
aF0.01606864194882287
aF0.5310691702445139
aa(lp671
F-0.0
aF-0.038092752074123895
aF-0.0
aF0.0
aF0.0
aF-0.07981672895100556
aF-0.0
aF0.0
aF0.0
aF0.17907224319437712
aF0.0
aF0.0
aa(lp672
F0.035914097607926423
aF0.055020546256150854
aa(lp673
F-0.016083722927055313
aF0.03493063433180734
aF0.22943688716031466
aF0.01055852604094806
aF-0.0
aF-0.14266345181790582
aF-0.06530495332630512
aF0.0
aF0.03093871561497303
aF1.1486164346742644
aa(lp674
F0.382044407191243
aF-0.13937147886459836
aF0.11994694464718464
aF0.024422094219086317
aF-0.0757922641590362
aF0.02862929132145168
aF0.0026492333078904718
aF-0.302145376255103
aF-0.035540093002029094
aF0.3859761633481192
aF0.5389287093139966
aa(lp675
F-0.2699185214922718
aF0.1646634649571503
aF0.14518238960279656
aa(lp676
F0.02732245343752066
aF-0.03384787380346828
aF-0.09593217856713118
aF-0.009701334416196588
aF-0.0022451431315883793
aF-0.009178652718637603
aF0.08619047379967985
aF0.0
aF0.4193741621015329
aF0.2627312136467084
aa(lp677
F0.0
aF0.0
aF0.0
aF-0.0
aF0.0
aF-0.0
aF-0.0
aF0.0
aF0.0
aa(lp678
F0.004749936683567179
aF-0.01284944462268246
aF0.02108221790421429
aF0.31648286345147936
aF0.6454744853692677
aa(lp679
F0.18669067895278368
aF-0.0
aF-0.5560968353037902
aF-0.0
aF0.047525582314210564
aF0.0
aF0.7521612699483271
aF-0.559642953906369
aF0.5664321401247183
aF-0.0
aF-0.0736028876616946
aF-0.025670666123414353
aF0.27555769428181764
aF-0.0
aF-0.4801688896227143
aF-0.0
aF-0.23890692333073066
aF-0.16445194032444063
aF0.4296599527606295
aF-0.0
aF0.2904355800354657
aF0.015408683218979794
aF0.6296075162774277
aF0.4115074582767326
aa(lp680
F0.0
aF0.011163950406060627
aF0.009366542744297088
aF0.04320986716844817
aF-0.0
aF-0.13433153923648208
aF-0.0
aF0.2678627622448517
aF0.5278895088380428
aa(lp681
F-0.09688726037397843
aF-0.1399105730176118
aF0.05013345433737386
aa(lp682
F0.0
aF0.0
aF0.0
aF-0.0
aF0.0
aF0.0
aF0.36656523917041395
aF0.0
aa(lp683
F0.07604622138516166
aF-0.005274351424488425
aF-0.0
aF0.020987259943279133
aF-0.0853208927271429
aF0.16469767144371938
aF0.0
aF-0.12449474206177441
aF-0.03616327462823615
aF0.038580788454018876
aF0.008559355232739997
aF-0.0
aF0.2891205022190505
aF-0.0
aF0.701107326220666
aa(lp684
F-0.0021816134383558766
aF0.6971345530645779
aF0.26181170299494755
aF0.3006009798210608
aa(lp685
F-0.13642101342862803
aF-0.07581999019280063
aF0.28821309726854
aF0.16329959701010108
aF0.15668932340213873
aa(lp686
F-0.10439184904221457
aF-0.05146229892837692
aF-0.04367155730611144
aF0.0
aF0.03632924523128961
aF0.3096130167334154
aF-0.09438749768178188
aF0.2556104923246442
aF-0.19447146685027347
aF0.8179496699845376
aa(lp687
F0.24274440245811463
aF-0.04832798947107862
aF-0.018177779712033826
aF0.17339976783720132
aF0.07287757047340927
aF0.10968414976834782
aF0.27436092030398906
aa(lp688
F-0.04735436437965337
aF-0.0
aF0.061298132209092825
aa(lp689
F0.9713873027889373
aF0.0
aF-0.3167953091675376
aF-0.0
aF0.0
aF0.31148868706359506
aF-0.012748362604286011
aF0.09143116603148747
aF0.5181154985964878
aF-0.2519471352961525
aF-0.29260543542486367
aF-0.30900891129898417
aF-0.4172417407337809
aF0.07196252626366285
aF0.765298713149115
aF0.04361974966306853
aF-0.34697525635176024
aF0.6886059294259325
aF-0.4082466943429105
aF0.3116257367225781
aF-0.0062859316732937105
aF-0.27691285401007354
aF0.01025924849033384
aF0.32335795589682004
aF0.393130876275289
aF-0.3989300390880059
aa(lp690
F0.06043496703002803
aF0.22175686198687766
aF-0.00808272554706329
aF0.01877004016040917
aF0.0
aF-0.0
aF0.004022547787680459
aF-0.010714278914525982
aF-0.03176373731107811
aF-0.025118443263330122
aF0.6601941996000827
aa(lp691
g483
(g487
S'\xd7o\xedc\xa16\xea?'
p692
tp693
Rp694
ag483
(g487
S'\xeb<v\xcb\xfbQ\xa3?'
p695
tp696
Rp697
ag483
(g487
S'B\n\x8c^&\x1c\xa5?'
p698
tp699
Rp700
ag483
(g487
S'\xce\xf7\xb2\xf6&e\xc3?'
p701
tp702
Rp703
ag483
(g487
S'\x98\xb0v\xcd\x8d\xdd\xc9?'
p704
tp705
Rp706
ag483
(g487
S'\x122\xa8.\xb3\xea\x9f?'
p707
tp708
Rp709
ag483
(g487
S'c3c|\x04\x19\xb5?'
p710
tp711
Rp712
ag483
(g487
S'\x1d\xde.\xdc{k\x8f?'
p713
tp714
Rp715
ag483
(g487
S'3\x82\x0b\xc0m\x8d\x8f?'
p716
tp717
Rp718
ag483
(g487
S'\xec\xc9\x1d\xd6\x8f\xb3\xbd?'
p719
tp720
Rp721
ag483
(g487
S'\x9af\xce\x10\xcec\x92?'
p722
tp723
Rp724
ag483
(g487
S'\xf5\xbb\xa8\x8c?#\xe1?'
p725
tp726
Rp727
ag483
(g487
S'i\xfb\x86\xa7\xf4\xc1\xb4?'
p728
tp729
Rp730
ag483
(g487
S'{(\x17\xe3\xf5\xde\xed?'
p731
tp732
Rp733
ag483
(g487
S'\x90\x0b\xf7J9\xe6`?'
p734
tp735
Rp736
ag483
(g487
S'eDE\xb7\x98\xd0\xe4?'
p737
tp738
Rp739
ag483
(g487
S'O\xa4ZXc]\xa8?'
p740
tp741
Rp742
ag483
(g487
S'\tG\xc4\xfdqm\xa7?'
p743
tp744
Rp745
ag483
(g487
S'\xcc\xf3Oz~G\x99?'
p746
tp747
Rp748
ag483
(g487
S'\xe0\xb6["[h\x93?'
p749
tp750
Rp751
ag483
(g487
S'\xc7k}\xb7#\x9d\xf4?'
p752
tp753
Rp754
ag483
(g487
S'\xa0}\x07x\xbb&\xa6?'
p755
tp756
Rp757
ag483
(g487
S'\x07\xd1GQ!3\x95?'
p758
tp759
Rp760
ag483
(g487
S'^}\xd6\r\xc3\x1d\x98?'
p761
tp762
Rp763
ag483
(g487
S'\xbe\xb7\xaf\x02\xa1Q\x80?'
p764
tp765
Rp766
ag483
(g487
S'6\x9f\x12\xd5\xfc\xe9\x96?'
p767
tp768
Rp769
ag483
(g487
S'\xc5\xc8[\xff3\xb6y?'
p770
tp771
Rp772
ag483
(g487
S')f"\xa6@\xe8|?'
p773
tp774
Rp775
ag483
(g487
S'\xeb\xac\xd8\xb9i,\x8b?'
p776
tp777
Rp778
ag483
(g487
S'\x1b\xd2\x1bI\x86u\xc8?'
p779
tp780
Rp781
ag483
(g487
S'K\x03Y\x9d7\xd8\xe5?'
p782
tp783
Rp784
ag483
(g487
S'\x0faG\xbd\xa4\xb8\xcf?'
p785
tp786
Rp787
ag483
(g487
S'\x82f\xf5\xa0\xa1n\xbb?'
p788
tp789
Rp790
ag483
(g487
S'\x05\xeei`e\x11\x90?'
p791
tp792
Rp793
ag483
(g487
S'1u\x1d\x1f\xf7\xb5\xf5?'
p794
tp795
Rp796
ag483
(g487
S'P\xc3O\xbe\xc9\xber?'
p797
tp798
Rp799
ag483
(g487
S'\x0e~s\xa7\x9e\x10\t@'
p800
tp801
Rp802
ag483
(g487
S'\xee\xce&\xe8\x11D\xbc?'
p803
tp804
Rp805
ag483
(g487
S'\x18\xc7\x88\xcf\xc6\x1c\x94?'
p806
tp807
Rp808
ag483
(g487
S'\x8c\x16\xe6\xee\x8f\xb6\x99?'
p809
tp810
Rp811
ag483
(g487
S'\x92j\xf2Em\x83\x02@'
p812
tp813
Rp814
ag483
(g487
S';XY5\xae\x9b\xee?'
p815
tp816
Rp817
ag483
(g487
S'\xc0\x852\x15W\x8c\xa5?'
p818
tp819
Rp820
ag483
(g487
S'\xd9,\xb8X\x15_\xc3?'
p821
tp822
Rp823
ag483
(g487
S'\x979j\x80^\xc0\xbc?'
p824
tp825
Rp826
ag483
(g487
S't\x02\x076\xc6{\xaa?'
p827
tp828
Rp829
ag483
(g487
S'7\xbe\xf8\xa5\xc7\xa4\xb0?'
p830
tp831
Rp832
ag483
(g487
S'\xcd\x94M\xf7\x1e\xdc\xcc?'
p833
tp834
Rp835
ag483
(g487
S'\xffy\x83~\x11)\x8b?'
p836
tp837
Rp838
ag483
(g487
S'\xab\xa4&\xe7\xd3F\x86?'
p839
tp840
Rp841
a(lp842
g483
(g487
S'\x04\x12\xe0\xd0\x92\x1b\x11@'
p843
tp844
Rp845
ag483
(g487
S'p\x9d\xbfBPH\r@'
p846
tp847
Rp848
ag483
(g487
S'\xc4g\xf5u\xb93\x19\xc0'
p849
tp850
Rp851
ag483
(g487
S'\xe0)\xdc\x1c\x1a\x89 \xc0'
p852
tp853
Rp854
ag483
(g487
S'`/\xb2\x03\x96\x9f\xf2?'
p855
tp856
Rp857
ag483
(g487
S"\x80\x89\xf1'\x07\xb7\xd2?"
p858
tp859
Rp860
ag483
(g487
S' \xeb\xd6\xab\x0f\xdc\x00\xc0'
p861
tp862
Rp863
ag483
(g487
S'P)\xe0\xf5\x1d/\xf3\xbf'
p864
tp865
Rp866
ag483
(g487
S'\x08\xb5\x02\xaf\xf5\xe2\x0e@'
p867
tp868
Rp869
ag483
(g487
S' \xce\xb6\xa0\xa1\x0b\xf2?'
p870
tp871
Rp872
ag483
(g487
S' \x8cn\x98\xd5l\x05\xc0'
p873
tp874
Rp875
ag483
(g487
S'\x10\x88H\x93\x1a3\xf4\xbf'
p876
tp877
Rp878
ag483
(g487
S'\xab\xa6\x85A\x80\x94&@'
p879
tp880
Rp881
ag483
(g487
S'o\x88\x8aV6;+@'
p882
tp883
Rp884
ag483
(g487
S'c\x0b(\xfc\xd0? @'
p885
tp886
Rp887
ag483
(g487
S' \x8b\xbfk=>-\xc0'
p888
tp889
Rp890
ag483
(g487
S'\x9b\xb0\x86sz\x0b"@'
p891
tp892
Rp893
ag483
(g487
S'\x0bE\xd4\xe4\xfb00\xc0'
p894
tp895
Rp896
ag483
(g487
S"\x00c\x06s\xb6'\x04@"
p897
tp898
Rp899
ag483
(g487
S'\x00\x01v\xa0\x9d\xa4\xb0?'
p900
tp901
Rp902
ag483
(g487
S'\xd2\x9bO\xad\x18\xc8-\xc0'
p903
tp904
Rp905
ag483
(g487
S'(#\xc6\rW\xc4\n\xc0'
p906
tp907
Rp908
ag483
(g487
S'R_\xb1\xf5\x96Q%@'
p909
tp910
Rp911
ag483
(g487
S'h\xcd$\x19\xcf\x96\x16@'
p912
tp913
Rp914
ag483
(g487
S'\x10I\x9d\x83;\x01\xf1\xbf'
p915
tp916
Rp917
ag483
(g487
S'\xb0\x8d6u\xcd\xdc\xf9?'
p918
tp919
Rp920
ag483
(g487
S'pe\xeb\xc6W\xcd\x0b\xc0'
p921
tp922
Rp923
ag483
(g487
S'\x00SJ(\x7fU\xc5?'
p924
tp925
Rp926
ag483
(g487
S'\x00\x15@B0\xd6\xc9\xbf'
p927
tp928
Rp929
ag483
(g487
S'\x1dhZ\x18\x18\x1d*@'
p930
tp931
Rp932
ag483
(g487
S'@Y\xc6\x86SU\x07@'
p933
tp934
Rp935
ag483
(g487
S'\x8aO\xc4\x9cRq2@'
p936
tp937
Rp938
ag483
(g487
S'\x8cH\x80\x1c\xe2\xeb\x1f@'
p939
tp940
Rp941
ag483
(g487
S'\xe0\x96<\xa6;\xf0\x12@'
p942
tp943
Rp944
ag483
(g487
S'\x00\xf4b\xd5\x9b\xb7)@'
p945
tp946
Rp947
ag483
(g487
S'\x00\x8el<\x94\xdc\x1f@'
p948
tp949
Rp950
ag483
(g487
S'&\x88\x14x\x00\x97;@'
p951
tp952
Rp953
ag483
(g487
S'\xc0\xe1\x03\xdd\xe3\xbb\xf3?'
p954
tp955
Rp956
ag483
(g487
S'U\x9e\xc3\x8a\xce\xf40\xc0'
p957
tp958
Rp959
ag483
(g487
S'TJUE\xf9\xb6\x10@'
p960
tp961
Rp962
ag483
(g487
S'\r\x08\xc3\xe4\x8b\xfc.@'
p963
tp964
Rp965
ag483
(g487
S'\xd4O\xeb\x08\xbbs\x14@'
p966
tp967
Rp968
ag483
(g487
S'\xa0\xb1\x8c\xab\xa8i\xf9\xbf'
p969
tp970
Rp971
ag483
(g487
S'4k\x12r\xcb\xda\x1b\xc0'
p972
tp973
Rp974
ag483
(g487
S"\x90uW\xc4\xe2\x89'@"
p975
tp976
Rp977
ag483
(g487
S'\x80}3\xbb\x91f\xe9\xbf'
p978
tp979
Rp980
ag483
(g487
S'<\xee\xe4X^ \x16@'
p981
tp982
Rp983
ag483
(g487
S'#\rnr\xe4G6@'
p984
tp985
Rp986
ag483
(g487
S'M\xd8\x97\xdf\x1c\xa4$@'
p987
tp988
Rp989
ag483
(g487
S'P\xeb\xd6\xc3\x01\xbc\xf9?'
p990
tp991
Rp992
a(lp993
cnumpy.core.multiarray
_reconstruct
p994
(cnumpy
ndarray
p995
(I0
tp996
S'b'
p997
tp998
Rp999
(I1
(L1L
tp1000
g487
I00
S'u\xf5\x18\x9cs]\xea?'
p1001
tp1002
ba(lp1003
F0.5770677401540372
aF0.2417144376900547
aa(lp1004
F0.20615410215198104
aF0.9231388566959791
aF0.15460639860625192
aa(lp1005
F0.001969246741542011
aF1.0612236080451805
aF0.27909419380547806
aa(lp1006
F0.480919916512809
aF0.18844480297933058
aF0.25809672702058245
aa(lp1007
F-0.2291305239043943
aF0.7191523882915953
aF0.41454890985824017
aF0.07854912268130496
aa(lp1008
F0.5407273822226862
aF-1.4921047798343652
aF-0.21435462028070443
aF1.475950131713157
aF0.8200639793945917
aF-0.006695239355672783
aa(lp1009
F-0.004230559634409514
aF0.09671280886853925
aF-0.564004098985126
aF0.14995746028282064
aF0.38535853308428664
aF1.0047167834396808
aF0.004781263131168256
aa(lp1010
F0.18544133982157526
aF0.0
aF0.021050240698166717
aF0.0
aF0.0018293258703447762
aF0.18149931106934825
aF0.42662873394170703
aF0.0
aa(lp1011
F0.1814658578193324
aF0.0
aF0.0
aF-0.7928986727859335
aF-0.0
aF-0.0
aF0.0
aF1.3412419436480794
aF0.263172840645808
aa(lp1012
F0.0
aF0.0
aF0.0
aF0.0
aF0.016800202999743725
aF0.0
aF0.0
aF1.0873791361223661
aF0.0
aa(lp1013
F0.40711547081647165
aF0.25765966645933513
aF0.37673081825660315
aa(lp1014
F-0.020950919583530243
aF-0.0
aF0.5213109459521731
aF-0.0
aF0.010931167419611122
aa(lp1015
F0.08336952419739732
aF0.20903756385026068
aF-0.15126844276156484
aF0.02066884881632749
aF0.196366163769159
aF0.011276845658048384
aa(lp1016
F0.008727275861955232
aF0.027964827501753886
aF-0.0
aF0.0
aF0.042577802212812654
aF-0.037988260741790895
aF-0.037977317243191276
aF0.27554213501087904
aF-0.10235594907518164
aF-0.1743972126206252
aF0.01849902782271947
aF0.6026419859071549
aF0.022077568050787835
aa(lp1017
F0.28877376425182805
aF0.551647699414333
aF-0.2645800108103058
aF0.8350220785914613
aF-0.6013924194693572
aF-0.47055011961350285
aF0.17229515126027684
aF0.16316381377026692
aF0.19430564148033005
aF-0.029183624017683478
aF-0.15814337794184577
aF0.13288374996159008
aF0.9697481998171358
aF-0.047067898268928376
aa(lp1018
F-0.0
aF0.14426066312684047
aF-0.057368872325072554
aF0.04971115294271732
aF0.0
aF0.453413176904405
aF0.03653838993553666
aa(lp1019
F0.0
aF0.0
aF0.0
aF0.0
aF0.0
aF0.0
aF0.0
aF0.0
aF1.8260731961957737
aF0.03803472898759205
aF0.0
aF-0.0
aF0.0
aF0.059210387155078655
aa(lp1020
F0.019076652968016937
aF0.0
aF-0.0
aF-0.0
aF0.1935513468970169
aF0.0
aF0.6993133120580788
aF-0.0
aa(lp1021
F0.0
aF-0.008288848374697944
aF0.3625045781372197
aF0.0
aF0.6189218899362866
aF0.049248838400896576
aa(lp1022
F0.14309257857863578
aF0.16188366150523165
aF0.9495512919400897
aF0.0
aF0.2781706802778542
aF0.1751705513418119
aa(lp1023
F0.03777799139115405
aF-0.0
aF0.07930373666452237
aF1.0028065201083844
aF0.034453515074162985
aa(lp1024
F-0.0
aF-0.03438221656363563
aF-0.2201226228842019
aF-0.03899157646256685
aF0.3991634291300484
aF0.40151363932697565
aF0.0
aa(lp1025
F-0.030849176032189885
aF0.02466254902230905
aF0.0
aF-0.09718988948868096
aF-0.0
aF0.07663931509967917
aF0.6849132294724044
aF0.10770777400097586
aa(lp1026
F0.0
aF-0.0
aF-0.15832768576022208
aF-0.03389444396186577
aF-0.0
aF-0.0
aF0.0
aF-0.013967531310533417
aF0.18239601223703553
aF0.3165335747214268
aF0.3847344261865494
aF0.3186113146759492
aF0.0
aa(lp1027
F-0.09963469794254749
aF0.04999647725970676
aF0.04736475479761019
aF-0.0
aF0.05753794659785621
aF0.04931359228657261
aF0.13764997534527518
aF0.3146193074059586
aF0.31789720174965397
aF0.048096963576882715
aa(lp1028
F-0.00283961132287085
aF-0.004294299589951715
aF-0.0
aF0.2265156703060337
aF-0.1141397114166715
aF-0.0
aF0.6278843517990256
aF0.4004063247624415
aF-0.0
aa(lp1029
F0.02073190813598466
aF0.006980027568804989
aF0.0
aF0.018921932157148064
aF0.11021135840081779
aF0.10046895564935372
aF0.0
aF0.4593508752653849
aF0.27085827728112294
aF-0.01060516054407317
aa(lp1030
F0.0
aF0.037832548261783915
aF0.03623204782321703
aF0.03427945865607339
aF0.45813747327656607
aF0.44024945327806275
aF0.0
aa(lp1031
F0.4658182391515465
aF-0.24399053484429928
aF-0.03270456879669491
aF-0.0
aF-0.0034289836996291095
aF0.24319716543042938
aF-0.992934670476712
aF0.10391671963701007
aF-0.2640330763326269
aF-0.5711367857957244
aF0.44510840416083247
aF1.1619483732113698
aF-0.5015956975739999
aF0.6239727950433938
aF-0.10985291753148584
aF0.09079732794873256
aF0.0
aF-0.08399336232702106
aa(lp1032
F0.06748919752827101
aF-0.0003396323489747868
aF-0.0018537171803975703
aF0.3077796427113745
aF0.08979776666395278
aF-0.03033004594831946
aF-0.3178347651148612
aF-0.028621260422460108
aF0.1178823947769188
aF0.3273258087533872
aF0.0926637008466526
aF0.07192075316573901
aF0.07907439535124454
aa(lp1033
F0.01627117645577208
aF0.12353976245753258
aF0.0
aa(lp1034
F0.0
aF-0.0
aF0.0
aF-0.0
aF-0.16562589948013712
aF-0.0
aF0.0
aF0.38965936458528316
aF0.0
aF0.24278903371067345
aF0.14348798504690843
aa(lp1035
F0.35740794741137377
aF-0.010347931016930918
aF-0.0
aF0.0
aF-0.0791595115802922
aF0.0
aF0.0
aF-0.0
aF-0.0
aF0.0
aF0.4288519766465274
aF0.1371795697906121
aa(lp1036
F-0.11092709820981929
aF0.05004043207265599
aF0.0
aF0.5371593720472713
aa(lp1037
F0.0
aF-0.016055714217328317
aF-0.08009706094275414
aF-0.012526253671025374
aF-0.0
aF-0.0026403616273849993
aF0.06418827198402059
aF0.02325981273937895
aF0.36291166485319504
aF0.27907849782668154
aF0.030709962668047847
aa(lp1038
F-0.5930367336441945
aF0.26471512683180465
aF-0.03906796202451294
aF-0.9871220907093334
aF0.5464719115634824
aF-0.8773865552942189
aF-0.47581748789112605
aF0.5594380643030826
aF1.4750268454177549
aF-0.1806116656880665
aa(lp1039
F0.005530878333570368
aF-0.0251025757098736
aF0.061908092798263314
aF0.2711309876342691
aF0.6925075346688997
aF0.0
aa(lp1040
F0.0
aF-0.13975681852732982
aF-0.05423125944661357
aF-0.051200549464279724
aF-0.0
aF0.012849333449480447
aF0.48822664249217634
aF0.0
aF0.9010145687221504
aF-0.11180117835954158
aF-0.0
aF-0.10185381739263578
aF0.3223826005815201
aF-0.07908325301439305
aF-0.0
aF-0.4473030427212123
aF-0.3097890554534046
aF0.07065266968486988
aF0.0
aF-0.002375985815237263
aF0.1922567682073265
aF-0.0
aF0.7407891256065425
aF0.28639836180830525
aF0.03574679644889583
aa(lp1041
F-0.0011815323374097047
aF0.0
aF0.0
aF0.09174549820794066
aF-0.07666669263742856
aF-0.1012751834590023
aF-0.05081053910255158
aF0.12216278917096449
aF0.7171631522042272
aF0.07933322184222975
aa(lp1042
F-0.0872393815224221
aF-0.0
aF0.0
aF0.44190027530624715
aa(lp1043
F-0.10392900181541838
aF-0.05873021442215864
aF0.12695010776345786
aF-0.20303039305548548
aF0.5202766662894647
aF-0.0023759059806612187
aF0.1708659599783746
aF0.2192287610136463
aF0.0732534290419408
aa(lp1044
F0.10694712328384727
aF-0.002304489879488758
aF-0.07411308670230839
aF0.0
aF-0.06671606705612831
aF0.10374415813486024
aF0.1289011840956559
aF-0.11697417657968025
aF-0.08733104886354187
aF0.020096349956423815
aF0.021128530732710378
aF-0.048118817113628844
aF0.391123355811107
aF-0.09550199249561402
aF0.7065073361103391
aF0.004207128957728917
aa(lp1045
F-0.0
aF0.6794567105685646
aF0.19650284504525606
aF0.3112955359889943
aF0.07684002896789743
aa(lp1046
F-0.11752183999881577
aF-0.06444416019619482
aF0.2527599168808005
aF0.18802373250935692
aF0.10948302303816142
aF0.08312937028650579
aa(lp1047
F-0.04397666780264845
aF0.0
aF-0.07641561903187673
aF0.013366554939234178
aF0.1632136002265566
aF0.20667180282975484
aF-0.19724910197804602
aF0.20852694044074563
aF-0.0
aF0.7479086664744087
aF0.05076510079485449
aa(lp1048
F0.20782621828637834
aF-0.06730045585787237
aF-0.0
aF0.1476645053735067
aF0.10203697135746737
aF0.09985674043005273
aF0.22373985426625528
aF0.0371387568733598
aa(lp1049
F-0.0
aF-2.4513115021766518e-17
aF0.0
aF0.0
aa(lp1050
F0.0
aF0.14938303757444962
aF0.0
aF0.23139636396510768
aF0.060993456440708575
aF0.0
aF0.0
aF-0.0
aF0.0026668441504834857
aF-0.0
aF-0.0
aF-0.0
aF-0.0
aF0.0
aF0.0
aF-0.0
aF-0.0
aF-0.0
aF-0.0
aF-0.0
aF-0.0
aF0.0
aF-0.0
aF0.0
aF0.0
aF-0.0
aF0.08367235089718836
aa(lp1051
F0.03964422058755925
aF0.23643982476807696
aF-0.0
aF0.01727476244900786
aF0.01103798913154427
aF-0.01462822114111336
aF0.02492058748372128
aF-0.009033071733504424
aF-0.021288553615357367
aF-0.03826120279901248
aF0.6550598530354544
aF0.016440959700285994
aa(lp1052
g483
(g487
S'\xdb\xb3\xa0\xf3\x01\xa7\xd0?'
p1053
tp1054
Rp1055
ag483
(g487
S"\x8fd\x08'\x1a\x17\x9b?"
p1056
tp1057
Rp1058
ag483
(g487
S'Y[\xde\xf0\x0c\x8d\xa1?'
p1059
tp1060
Rp1061
ag483
(g487
S'\xd2x\x1ajf\x93\xbd?'
p1062
tp1063
Rp1064
ag483
(g487
S'\x1a\x15\xd4\xbd\xd5\xae\xbe?'
p1065
tp1066
Rp1067
ag483
(g487
S'\xe3\xd9\x981\xcb\xce\x9b?'
p1068
tp1069
Rp1070
ag483
(g487
S'A\x9a\xe8\x02\xa0\xea\xb4?'
p1071
tp1072
Rp1073
ag483
(g487
S'\xb5\x95n\xe6\xd0\x00\x90?'
p1074
tp1075
Rp1076
ag483
(g487
S'\xec\x1f\x19b\xa3W\x91?'
p1077
tp1078
Rp1079
ag483
(g487
S'1\xe1k\xeb}\xc9\xce?'
p1080
tp1081
Rp1082
ag483
(g487
S'\xdb\xb0N\xc1\x0c\xc6\xad?'
p1083
tp1084
Rp1085
ag483
(g487
S'R1k\x06,J\xd7?'
p1086
tp1087
Rp1088
ag483
(g487
S'\xb7W9\xac\xb6\xaa\x9f?'
p1089
tp1090
Rp1091
ag483
(g487
S'\xb7iC9\xaa\x86\x9d?'
p1092
tp1093
Rp1094
ag483
(g487
S'\x02\xa9m\x8d\xcfAn?'
p1095
tp1096
Rp1097
ag483
(g487
S'i\xcd\xc7\xac\x0c\xb9\x83?'
p1098
tp1099
Rp1100
ag483
(g487
S'\xc5\xe9\xb2\xb4\xe9\xe3\x97?'
p1101
tp1102
Rp1103
ag483
(g487
S'\xce\xd3<\x83\x90\xd4\xd1?'
p1104
tp1105
Rp1106
ag483
(g487
S'\x9es\x85\x02rY\xa0?'
p1107
tp1108
Rp1109
ag483
(g487
S'W\x17\xc2\xd6\xb4\xa5\x87?'
p1110
tp1111
Rp1112
ag483
(g487
S'~\x0fQ\x118\x8d\xd5?'
p1113
tp1114
Rp1115
ag483
(g487
S'\x1b0\xb3\x92\x82U\xa6?'
p1116
tp1117
Rp1118
ag483
(g487
S'5\xd2\xdb\xa3\xbb.\x99?'
p1119
tp1120
Rp1121
ag483
(g487
S'\xaa\x8e*r\x86H\x92?'
p1122
tp1123
Rp1124
ag483
(g487
S'\xde\xa0\x1c\x82\xc0\xcb\x89?'
p1125
tp1126
Rp1127
ag483
(g487
S'\xbd\xa7\xa8\x87\x82V\x82?'
p1128
tp1129
Rp1130
ag483
(g487
S'1y\xeev\xa0\x8av?'
p1131
tp1132
Rp1133
ag483
(g487
S'\xa7\xff\xc2\xb2\xd3Fk?'
p1134
tp1135
Rp1136
ag483
(g487
S'0\xba)\xd4\xd6j\x90?'
p1137
tp1138
Rp1139
ag483
(g487
S'\x10\x1f\xe3\xff\x9dy\x9b?'
p1140
tp1141
Rp1142
ag483
(g487
S'\xe8u\xf7\xde\x9b(m?'
p1143
tp1144
Rp1145
ag483
(g487
S'gp\xfd0jJ\xca?'
p1146
tp1147
Rp1148
ag483
(g487
S'\xa5\xf2K{\x8b\x89\xc4?'
p1149
tp1150
Rp1151
ag483
(g487
S'~\xc9H\xc1\xfc\x01\xa2?'
p1152
tp1153
Rp1154
ag483
(g487
S')\x8d\xae2\xeb\x1e\xec?'
p1155
tp1156
Rp1157
ag483
(g487
S'\xc6\xd0\x84I\xb6\xe2w?'
p1158
tp1159
Rp1160
ag483
(g487
S'o\x86\x9b\x95\xf74\xc3?'
p1161
tp1162
Rp1163
ag483
(g487
S'0\x01H\xbdxF\xb9?'
p1164
tp1165
Rp1166
ag483
(g487
S'(\x11\x82\xd7\xb1\xa8\xa9?'
p1167
tp1168
Rp1169
ag483
(g487
S"'i\xedL\x80k\x86?"
p1170
tp1171
Rp1172
ag483
(g487
S"9g\x0f'\x83G\xf6?"
p1173
tp1174
Rp1175
ag483
(g487
S'We?|H\xc8\xa2?'
p1176
tp1177
Rp1178
ag483
(g487
S'f\xbf\x08)G\xfc\xa0?'
p1179
tp1180
Rp1181
ag483
(g487
S'\xa9\x1cUO\xc5~\xbc?'
p1182
tp1183
Rp1184
ag483
(g487
S'\xc7\x16\x04\xf3y\xee\xbe?'
p1185
tp1186
Rp1187
ag483
(g487
S'B\x9d0\xd7\xda\xf5\xaf?'
p1188
tp1189
Rp1190
ag483
(g487
S'\xb9\xc67\x7ff\xb0\xb2?'
p1191
tp1192
Rp1193
ag483
(g487
S'0\x8aA\xbb$\xbc\xd6?'
p1194
tp1195
Rp1196
ag483
(g487
S'S\x8a\xb6\xdf\x1c\xca\xd9?'
p1197
tp1198
Rp1199
ag483
(g487
S'\xd7\x97\x91\xee\t\x1e\x83?'
p1200
tp1201
Rp1202
atp1203
.