((dp0
I0
(lp1
(I0
I-1
tp2
asI1
(lp3
(I0
I0
tp4
a(I1
I-1
tp5
asI2
(lp6
(I0
I0
tp7
a(I1
I0
tp8
a(I2
I-1
tp9
asI3
(lp10
(I1
I0
tp11
a(I2
I0
tp12
a(I3
I-1
tp13
asI4
(lp14
(I0
I0
tp15
a(I1
I0
tp16
a(I2
I0
tp17
a(I3
I0
tp18
a(I4
I-1
tp19
asI5
(lp20
(I3
I0
tp21
a(I4
I0
tp22
a(I5
I-1
tp23
asI6
(lp24
(I0
I0
tp25
a(I1
I0
tp26
a(I2
I0
tp27
a(I4
I0
tp28
a(I5
I0
tp29
a(I6
I-1
tp30
asI7
(lp31
(I0
I0
tp32
a(I3
I0
tp33
a(I4
I0
tp34
a(I5
I0
tp35
a(I6
I0
tp36
a(I7
I-1
tp37
asI8
(lp38
(I0
I0
tp39
a(I1
I0
tp40
a(I4
I0
tp41
a(I6
I0
tp42
a(I7
I0
tp43
a(I8
I-1
tp44
asI9
(lp45
(I0
I0
tp46
a(I1
I0
tp47
a(I3
I0
tp48
a(I4
I0
tp49
a(I6
I0
tp50
a(I7
I0
tp51
a(I8
I0
tp52
a(I9
I-1
tp53
asI10
(lp54
(I9
I0
tp55
a(I10
I-1
tp56
asI11
(lp57
(I0
I0
tp58
a(I1
I0
tp59
a(I9
I0
tp60
a(I11
I-1
tp61
asI12
(lp62
(I0
I0
tp63
a(I1
I0
tp64
a(I2
I0
tp65
a(I3
I0
tp66
a(I4
I0
tp67
a(I6
I0
tp68
a(I7
I0
tp69
a(I8
I0
tp70
a(I9
I0
tp71
a(I10
I0
tp72
a(I11
I0
tp73
a(I12
I-1
tp74
asI13
(lp75
(I0
I0
tp76
a(I1
I0
tp77
a(I5
I0
tp78
a(I6
I0
tp79
a(I7
I0
tp80
a(I10
I0
tp81
a(I11
I0
tp82
a(I12
I0
tp83
a(I13
I-1
tp84
asI14
(lp85
(I0
I0
tp86
a(I1
I0
tp87
a(I2
I0
tp88
a(I3
I0
tp89
a(I6
I0
tp90
a(I9
I0
tp91
a(I11
I0
tp92
a(I12
I0
tp93
a(I13
I0
tp94
a(I14
I-1
tp95
asI15
(lp96
(I0
I0
tp97
a(I1
I0
tp98
a(I2
I0
tp99
a(I5
I0
tp100
a(I6
I0
tp101
a(I9
I0
tp102
a(I10
I0
tp103
a(I11
I0
tp104
a(I13
I0
tp105
a(I14
I0
tp106
a(I15
I-1
tp107
asI16
(lp108
(I1
I0
tp109
a(I2
I0
tp110
a(I6
I0
tp111
a(I9
I0
tp112
a(I11
I0
tp113
a(I12
I0
tp114
a(I14
I0
tp115
a(I15
I0
tp116
a(I16
I-1
tp117
asI17
(lp118
(I0
I0
tp119
a(I1
I0
tp120
a(I3
I0
tp121
a(I6
I0
tp122
a(I7
I0
tp123
a(I8
I0
tp124
a(I9
I0
tp125
a(I10
I0
tp126
a(I11
I0
tp127
a(I12
I0
tp128
a(I13
I0
tp129
a(I14
I0
tp130
a(I15
I0
tp131
a(I16
I0
tp132
a(I17
I-1
tp133
asI18
(lp134
(I0
I0
tp135
a(I1
I0
tp136
a(I7
I0
tp137
a(I10
I0
tp138
a(I11
I0
tp139
a(I12
I0
tp140
a(I13
I0
tp141
a(I15
I0
tp142
a(I16
I0
tp143
a(I17
I0
tp144
a(I18
I-1
tp145
asI19
(lp146
(I0
I0
tp147
a(I4
I0
tp148
a(I5
I0
tp149
a(I9
I0
tp150
a(I12
I0
tp151
a(I13
I0
tp152
a(I14
I0
tp153
a(I15
I0
tp154
a(I17
I0
tp155
a(I18
I0
tp156
a(I19
I-1
tp157
asI20
(lp158
(I0
I0
tp159
a(I15
I0
tp160
a(I17
I0
tp161
a(I19
I0
tp162
a(I20
I-1
tp163
asI21
(lp164
(I13
I0
tp165
a(I14
I0
tp166
a(I17
I0
tp167
a(I20
I0
tp168
a(I21
I-1
tp169
asI22
(lp170
(I1
I0
tp171
a(I4
I0
tp172
a(I12
I0
tp173
a(I13
I0
tp174
a(I14
I0
tp175
a(I15
I0
tp176
a(I16
I0
tp177
a(I20
I0
tp178
a(I21
I0
tp179
a(I22
I-1
tp180
asI23
(lp181
(I2
I0
tp182
a(I4
I0
tp183
a(I6
I0
tp184
a(I11
I0
tp185
a(I12
I0
tp186
a(I13
I0
tp187
a(I16
I0
tp188
a(I17
I0
tp189
a(I22
I0
tp190
a(I23
I-1
tp191
asI24
(lp192
(I2
I0
tp193
a(I4
I0
tp194
a(I10
I0
tp195
a(I11
I0
tp196
a(I13
I0
tp197
a(I16
I0
tp198
a(I20
I0
tp199
a(I21
I0
tp200
a(I22
I0
tp201
a(I23
I0
tp202
a(I24
I-1
tp203
asI25
(lp204
(I5
I0
tp205
a(I7
I0
tp206
a(I8
I0
tp207
a(I11
I0
tp208
a(I13
I0
tp209
a(I15
I0
tp210
a(I17
I0
tp211
a(I18
I0
tp212
a(I19
I0
tp213
a(I23
I0
tp214
a(I24
I0
tp215
a(I25
I-1
tp216
asI26
(lp217
(I1
I0
tp218
a(I7
I0
tp219
a(I13
I0
tp220
a(I15
I0
tp221
a(I17
I0
tp222
a(I18
I0
tp223
a(I20
I0
tp224
a(I22
I0
tp225
a(I23
I0
tp226
a(I24
I0
tp227
a(I26
I-1
tp228
asI27
(lp229
(I6
I0
tp230
a(I10
I0
tp231
a(I11
I0
tp232
a(I12
I0
tp233
a(I13
I0
tp234
a(I17
I0
tp235
a(I19
I0
tp236
a(I20
I0
tp237
a(I22
I0
tp238
a(I23
I0
tp239
a(I24
I0
tp240
a(I25
I0
tp241
a(I26
I0
tp242
a(I27
I-1
tp243
asI28
(lp244
(I1
I0
tp245
a(I2
I0
tp246
a(I8
I0
tp247
a(I10
I0
tp248
a(I13
I0
tp249
a(I17
I0
tp250
a(I20
I0
tp251
a(I22
I0
tp252
a(I24
I0
tp253
a(I25
I0
tp254
a(I26
I0
tp255
a(I27
I0
tp256
a(I28
I-1
tp257
asI29
(lp258
(I2
I0
tp259
a(I6
I0
tp260
a(I13
I0
tp261
a(I15
I0
tp262
a(I17
I0
tp263
a(I24
I0
tp264
a(I26
I0
tp265
a(I28
I0
tp266
a(I29
I-1
tp267
asI30
(lp268
(I1
I0
tp269
a(I6
I0
tp270
a(I7
I0
tp271
a(I11
I0
tp272
a(I13
I0
tp273
a(I14
I0
tp274
a(I15
I0
tp275
a(I16
I0
tp276
a(I17
I0
tp277
a(I18
I0
tp278
a(I21
I0
tp279
a(I23
I0
tp280
a(I26
I0
tp281
a(I30
I-1
tp282
asI31
(lp283
(I4
I0
tp284
a(I7
I0
tp285
a(I9
I0
tp286
a(I11
I0
tp287
a(I14
I0
tp288
a(I16
I0
tp289
a(I23
I0
tp290
a(I26
I0
tp291
a(I29
I0
tp292
a(I30
I0
tp293
a(I31
I-1
tp294
asI32
(lp295
(I30
I0
tp296
a(I32
I-1
tp297
asI33
(lp298
(I1
I0
tp299
a(I2
I0
tp300
a(I13
I0
tp301
a(I14
I0
tp302
a(I17
I0
tp303
a(I18
I0
tp304
a(I21
I0
tp305
a(I29
I0
tp306
a(I30
I0
tp307
a(I31
I0
tp308
a(I32
I0
tp309
a(I33
I-1
tp310
asI34
(lp311
(I7
I0
tp312
a(I13
I0
tp313
a(I17
I0
tp314
a(I30
I0
tp315
a(I32
I0
tp316
a(I33
I0
tp317
a(I34
I-1
tp318
asI35
(lp319
(I13
I0
tp320
a(I14
I0
tp321
a(I20
I0
tp322
a(I21
I0
tp323
a(I29
I0
tp324
a(I30
I0
tp325
a(I33
I0
tp326
a(I34
I0
tp327
a(I35
I-1
tp328
asI36
(lp329
(I34
I0
tp330
a(I36
I-1
tp331
asI37
(lp332
(I3
I0
tp333
a(I9
I0
tp334
a(I11
I0
tp335
a(I14
I0
tp336
a(I19
I0
tp337
a(I21
I0
tp338
a(I26
I0
tp339
a(I32
I0
tp340
a(I34
I0
tp341
a(I35
I0
tp342
a(I36
I0
tp343
a(I37
I-1
tp344
asI38
(lp345
(I0
I0
tp346
a(I1
I0
tp347
a(I3
I0
tp348
a(I4
I0
tp349
a(I5
I0
tp350
a(I7
I0
tp351
a(I8
I0
tp352
a(I10
I0
tp353
a(I11
I0
tp354
a(I12
I0
tp355
a(I13
I0
tp356
a(I16
I0
tp357
a(I20
I0
tp358
a(I24
I0
tp359
a(I29
I0
tp360
a(I30
I0
tp361
a(I32
I0
tp362
a(I34
I0
tp363
a(I35
I0
tp364
a(I36
I0
tp365
a(I37
I0
tp366
a(I38
I-1
tp367
asI39
(lp368
(I9
I0
tp369
a(I10
I0
tp370
a(I11
I0
tp371
a(I17
I0
tp372
a(I20
I0
tp373
a(I29
I0
tp374
a(I34
I0
tp375
a(I36
I0
tp376
a(I37
I0
tp377
a(I39
I-1
tp378
asI40
(lp379
(I2
I0
tp380
a(I3
I0
tp381
a(I4
I0
tp382
a(I7
I0
tp383
a(I10
I0
tp384
a(I11
I0
tp385
a(I12
I0
tp386
a(I14
I0
tp387
a(I15
I0
tp388
a(I19
I0
tp389
a(I21
I0
tp390
a(I24
I0
tp391
a(I30
I0
tp392
a(I32
I0
tp393
a(I34
I0
tp394
a(I36
I0
tp395
a(I37
I0
tp396
a(I38
I0
tp397
a(I39
I0
tp398
a(I40
I-1
tp399
asI41
(lp400
(I3
I0
tp401
a(I6
I0
tp402
a(I9
I0
tp403
a(I10
I0
tp404
a(I17
I0
tp405
a(I20
I0
tp406
a(I26
I0
tp407
a(I29
I0
tp408
a(I30
I0
tp409
a(I33
I0
tp410
a(I35
I0
tp411
a(I36
I0
tp412
a(I37
I0
tp413
a(I38
I0
tp414
a(I40
I0
tp415
a(I41
I-1
tp416
asI42
(lp417
(I17
I0
tp418
a(I24
I0
tp419
a(I30
I0
tp420
a(I31
I0
tp421
a(I34
I0
tp422
a(I36
I0
tp423
a(I38
I0
tp424
a(I40
I0
tp425
a(I41
I0
tp426
a(I42
I-1
tp427
asI43
(lp428
(I7
I0
tp429
a(I11
I0
tp430
a(I13
I0
tp431
a(I18
I0
tp432
a(I25
I0
tp433
a(I30
I0
tp434
a(I32
I0
tp435
a(I34
I0
tp436
a(I37
I0
tp437
a(I38
I0
tp438
a(I40
I0
tp439
a(I41
I0
tp440
a(I42
I0
tp441
a(I43
I-1
tp442
asI44
(lp443
(I11
I0
tp444
a(I16
I0
tp445
a(I17
I0
tp446
a(I18
I0
tp447
a(I19
I0
tp448
a(I29
I0
tp449
a(I30
I0
tp450
a(I31
I0
tp451
a(I34
I0
tp452
a(I35
I0
tp453
a(I36
I0
tp454
a(I42
I0
tp455
a(I43
I0
tp456
a(I44
I-1
tp457
asI45
(lp458
(I7
I0
tp459
a(I17
I0
tp460
a(I30
I0
tp461
a(I32
I0
tp462
a(I36
I0
tp463
a(I40
I0
tp464
a(I41
I0
tp465
a(I44
I0
tp466
a(I45
I-1
tp467
asI46
(lp468
(I30
I0
tp469
a(I32
I0
tp470
a(I45
I0
tp471
a(I46
I-1
tp472
asI47
(lp473
(I4
I0
tp474
a(I7
I0
tp475
a(I14
I0
tp476
a(I30
I0
tp477
a(I31
I0
tp478
a(I44
I0
tp479
a(I45
I0
tp480
a(I46
I0
tp481
a(I47
I-1
tp482
asI48
(lp483
(I4
I0
tp484
a(I6
I0
tp485
a(I7
I0
tp486
a(I8
I0
tp487
a(I10
I0
tp488
a(I17
I0
tp489
a(I20
I0
tp490
a(I21
I0
tp491
a(I29
I0
tp492
a(I35
I0
tp493
a(I36
I0
tp494
a(I42
I0
tp495
a(I43
I0
tp496
a(I45
I0
tp497
a(I46
I0
tp498
a(I48
I-1
tp499
asI49
(lp500
(I1
I0
tp501
a(I6
I0
tp502
a(I7
I0
tp503
a(I11
I0
tp504
a(I13
I0
tp505
a(I18
I0
tp506
a(I21
I0
tp507
a(I32
I0
tp508
a(I34
I0
tp509
a(I39
I0
tp510
a(I43
I0
tp511
a(I45
I0
tp512
a(I46
I0
tp513
a(I47
I0
tp514
a(I48
I0
tp515
a(I49
I-1
tp516
as(lp517
cnumpy.core.multiarray
scalar
p518
(cnumpy
dtype
p519
(S'f8'
p520
I0
I1
tp521
Rp522
(I3
S'<'
p523
NNNI-1
I-1
I0
tp524
bS'\xec\x9a\x07z\xe6\x06?@'
p525
tp526
Rp527
ag518
(g522
S'\x80_\x03\\6\\\xd8\xbf'
p528
tp529
Rp530
ag518
(g522
S'\xc4\xddf\xe9\x86\xd3\x17@'
p531
tp532
Rp533
ag518
(g522
S"\x8c\xbb\xb7\x1e\xbf\xef'@"
p534
tp535
Rp536
ag518
(g522
S'\x00o\x8d\x8f\xba\xf7\xfb\xbf'
p537
tp538
Rp539
ag518
(g522
S'\xe8\x92\xfa\r.\xa0\x15@'
p540
tp541
Rp542
ag518
(g522
S'p\x1e\x7f\xc1r\xd5\x0b\xc0'
p543
tp544
Rp545
ag518
(g522
S'\xd8G9\xf2k\xd0\x16@'
p546
tp547
Rp548
ag518
(g522
S'\x80d\x1f\xe3\x8aL\xe5?'
p549
tp550
Rp551
ag518
(g522
S'\x1c*\x0c\x16\xce\x1e"@'
p552
tp553
Rp554
ag518
(g522
S'\xc0\xd2#>\xad\xd6\xe5?'
p555
tp556
Rp557
ag518
(g522
S'\xee\xb9\xea\x1a\xc6o(@'
p558
tp559
Rp560
ag518
(g522
S'\x00\x00"af,\x96?'
p561
tp562
Rp563
ag518
(g522
S'\x90|\xea\xa4\x81\x88\x0c@'
p564
tp565
Rp566
ag518
(g522
S'\x00\x80`ML\x80\x15\xc0'
p567
tp568
Rp569
ag518
(g522
S'"\x13R\xbax\x9f"\xc0'
p570
tp571
Rp572
ag518
(g522
S'\xe0\xce\xf0\x96tx\x10@'
p573
tp574
Rp575
ag518
(g522
S'\xe0T\xc8\xf9Da\xfb?'
p576
tp577
Rp578
ag518
(g522
S'\x00\xbe\xe8/9E\xdc\xbf'
p579
tp580
Rp581
ag518
(g522
S"H\x88\xe1'\xd4z\x06\xc0"
p582
tp583
Rp584
ag518
(g522
S'\x04v\xe37b\x85\x10\xc0'
p585
tp586
Rp587
ag518
(g522
S'\xa0\xa7\xa8\x1f\x9e\x89\x06@'
p588
tp589
Rp590
ag518
(g522
S'\xd88\xe9\x06\x9e\n\x07\xc0'
p591
tp592
Rp593
ag518
(g522
S'\xbc\xbc1\xcb\xcf\x88\x14\xc0'
p594
tp595
Rp596
ag518
(g522
S'\xd0\xd7\x19~pc\x02\xc0'
p597
tp598
Rp599
ag518
(g522
S'\xf0^\xba\r\x93\xd1\xff\xbf'
p600
tp601
Rp602
ag518
(g522
S'\xc0Y\xfe\x9b\x00\x15\xfb\xbf'
p603
tp604
Rp605
ag518
(g522
S'P\x907\x06;}\xf0?'
p606
tp607
Rp608
ag518
(g522
S'0\x8c\xc0g\xc7|\n\xc0'
p609
tp610
Rp611
ag518
(g522
S'(<C\xf9\x9dq\n\xc0'
p612
tp613
Rp614
ag518
(g522
S'\x90\xfa\x89\x03\x01\x91\x01\xc0'
p615
tp616
Rp617
ag518
(g522
S'\x08Fz\x00\xdd\xce\x13@'
p618
tp619
Rp620
ag518
(g522
S'\xe0B\xf63\xae\x0c\x1c@'
p621
tp622
Rp623
ag518
(g522
S'\x9e\xd7\xca\xb3\xcb\x8d#@'
p624
tp625
Rp626
ag518
(g522
S'\x805\x9e\xe3\xd71\x1a\xc0'
p627
tp628
Rp629
ag518
(g522
S'@\x8a)|e\x8d\xf2\xbf'
p630
tp631
Rp632
ag518
(g522
S'\xcc\x07Q<\xf2\xad0@'
p633
tp634
Rp635
ag518
(g522
S'\xf0\x0bo\x16A\xa6\x1e\xc0'
p636
tp637
Rp638
ag518
(g522
S"\xc0\xd7\xbc\xb7\xe5\xf4'@"
p639
tp640
Rp641
ag518
(g522
S'\xd8\xf4\xb6|\x16g\x08@'
p642
tp643
Rp644
ag518
(g522
S'\xe8f\xc2\xdc}\x89\x0e@'
p645
tp646
Rp647
ag518
(g522
S'\x80S\x0f\xce\xad\n\xe3?'
p648
tp649
Rp650
ag518
(g522
S'\x00$\x83\xb1&\xb9\xe3?'
p651
tp652
Rp653
ag518
(g522
S'\xe0\xe8\xf7\xbe\x80\xc0\xf5\xbf'
p654
tp655
Rp656
ag518
(g522
S'\xa0\xcf\x83\xf8\xad\x00\t\xc0'
p657
tp658
Rp659
ag518
(g522
S'h\x91\xdeg\xbd\x82\x1b\xc0'
p660
tp661
Rp662
ag518
(g522
S' ,\xa5L\xe6Q\x1f@'
p663
tp664
Rp665
ag518
(g522
S'L\xeb\x95\x15\x00\xce"\xc0'
p666
tp667
Rp668
ag518
(g522
S'\x00\x84\x07z\xd9\xeb\x18@'
p669
tp670
Rp671
ag518
(g522
S'\xa0\xee\xf3\x13\x99\x9d\xf6\xbf'
p672
tp673
Rp674
a(lp675
(lp676
a(lp677
F1.1238617323313331
aa(lp678
F0.026857026761193288
aF0.7273260349964344
aa(lp679
F0.0
aF0.6549145766923364
aa(lp680
F0.6039486771185499
aF0.5969444000579072
aF-0.7358159916706631
aF0.5789861726277281
aa(lp681
F0.4621086392384439
aF0.3505190847856542
aa(lp682
F0.5720833271281764
aF-0.25605988995654483
aF-0.9174535925795378
aF1.126957903088849
aF0.5521381052483402
aa(lp683
F-0.01618794699667274
aF-0.3357396818991521
aF0.03989308998954176
aF0.020284609487847834
aF1.1375918098073143
aa(lp684
F0.057759038719921114
aF0.3266372362404012
aF0.09189304189119156
aF0.21242296166710853
aF0.31452950197463103
aa(lp685
F0.695896172214486
aF0.03669750196166569
aF-1.51962722429666
aF0.8281940938266689
aF-0.09078544122110428
aF0.27809363729374736
aF0.47963355570665944
aa(lp686
F0.9438695255182742
aa(lp687
F0.05688421435714267
aF0.4735981139886258
aF0.08352590306366643
aa(lp688
F-0.0
aF0.706059394236033
aF-0.0
aF-0.32694627674565935
aF0.4346185228858855
aF-0.10928463289565983
aF-0.2904116044043192
aF0.0
aF0.2939784639558911
aF0.2547360768111118
aF-0.0
aa(lp689
F0.0
aF0.0
aF0.0
aF-0.010881497670388483
aF-0.0
aF-1.3056827004014184
aF-0.0
aF2.2280318865057738
aa(lp690
F-0.05750585521287268
aF0.4553715689829097
aF-0.0
aF-0.045208136111606435
aF0.0
aF0.0009933685146648798
aF-0.14362974461279746
aF0.2679714309537817
aF0.6475641021084652
aa(lp691
F0.12494394083159416
aF0.0
aF0.23190345736607212
aF-0.020189421410676946
aF-0.06788025938540267
aF0.24375890428707245
aF0.19151964855653317
aF-0.012230697202592348
aF0.0
aF0.5125755948562818
aa(lp692
F-0.03797350122241393
aF-0.037749441682266266
aF0.057141530842156354
aF0.08627604430197605
aF-0.16389816250747782
aF0.054032653838972884
aF0.3898930733072741
aF0.5443097253804137
aa(lp693
F0.5185400529578434
aF-0.1425147006276876
aF-0.10520209537544846
aF-0.15328179630515892
aF0.045189573936554504
aF-0.20412244161344348
aF0.8719530981173137
aF0.40738908549148595
aF0.0
aF0.664305875975053
aF0.32908201829532785
aF-1.5586078673979742
aF0.08162217270804945
aF0.0
aa(lp694
F0.0
aF0.0
aF0.0
aF0.0
aF0.15451194999143741
aF0.06321101649798228
aF0.005102831213940555
aF0.0
aF0.0
aF0.7649555443287333
aa(lp695
F0.04107026973174179
aF0.0
aF0.01928250957202692
aF0.0459548122392266
aF0.10509855875459856
aF0.0
aF0.0
aF0.10715870609949264
aF0.0843918468927242
aF0.665228113448823
aa(lp696
F0.25481693930380284
aF0.3301754685704189
aF0.14668779336189078
aF0.24763431568517122
aa(lp697
F-0.03766686759391165
aF-0.08805618108031212
aF0.09106196862726958
aF0.9606758922938854
aa(lp698
F0.06677921915271091
aF0.05524856012863935
aF0.023254947965181547
aF-0.0
aF0.0
aF0.25464544468509565
aF0.015321820515494446
aF0.2532020484600864
aF0.5160718008477367
aa(lp699
F0.0
aF0.15130215915083253
aF0.009890453586838292
aF0.02400865502826783
aF0.36189805705956407
aF-0.14218342741277032
aF0.0
aF-0.12848010970135187
aF0.8310810093492544
aa(lp700
F0.10361056160494551
aF0.0
aF-0.14500463708019926
aF0.005109359892675378
aF-0.07882640277622531
aF-0.01428783980722177
aF0.30654494644854774
aF0.22185720760125094
aF0.3059598801386687
aF0.4334625958488047
aa(lp701
F0.02558505235181925
aF0.016624660391548796
aF0.0011420337330103666
aF0.02837263122142617
aF-0.06752397113133009
aF-0.0
aF0.0
aF0.14422747428774801
aF0.23023449085223976
aF0.5499269188175905
aF0.16372755287781207
aa(lp702
F0.11619263382519451
aF-0.034688985880381044
aF-0.01273771806154437
aF0.02646675897574075
aF-0.0
aF-0.15151644338170012
aF0.058524647482758756
aF0.46729614703058503
aF0.10559227608021755
aF0.49041790432402194
aa(lp703
F-0.002402611624110083
aF0.04788589064795018
aF0.024464333412882535
aF0.003330584074687192
aF0.0029493940579777443
aF0.008942510439136641
aF0.13721112047663409
aF0.0
aF0.0
aF0.008821722628549503
aF0.3496050725591814
aF0.36052415561691975
aF0.0665155096799384
aa(lp704
F0.010765652659184352
aF0.10077316608887667
aF0.0
aF0.07006900906220442
aF0.0
aF0.04201653157937579
aF0.28745927490310946
aF0.0
aF0.12310581609035569
aF0.24127774691826198
aF0.2616508827430784
aF0.0
aa(lp705
F0.2303226659040425
aF-0.0
aF0.0
aF0.4711176901986029
aF0.17279185333745398
aF0.0
aF0.10810168848917398
aF0.17796018525507823
aa(lp706
F0.46898843358614867
aF-0.0
aF-0.027826242728688427
aF0.049233944183831355
aF-0.3094106663188198
aF0.0576421093838684
aF0.6943385841873772
aF0.0
aF-0.30945660809183756
aF-0.2443702301646389
aF-0.12706581155437818
aF0.6007338337108316
aF0.37557230326232416
aa(lp707
F0.16402198773672402
aF0.14104523041630027
aF0.0
aF-0.0
aF0.05177376502776917
aF0.012607559659941637
aF0.1430704632815295
aF0.0
aF0.1271778449807641
aF0.33138992817606183
aa(lp708
F0.8424039502354721
aa(lp709
F0.059243373004679536
aF0.03389499669374558
aF0.0
aF0.11992521892510036
aF-0.05810081510017169
aF-0.06946314811504573
aF-0.06156286930891508
aF0.1667012765886681
aF0.06179952169540402
aF0.0
aF0.43624864543948133
aa(lp710
F-0.0
aF0.14891091669583922
aF-0.11192797096032185
aF0.005555889528742477
aF0.03152545534489155
aF0.9633310252944233
aa(lp711
F0.0
aF0.045720457633530616
aF-0.010734959611107701
aF-0.07235530387526957
aF0.19432765803361793
aF0.08541892741656835
aF0.5494826449403628
aF0.23379089584618748
aa(lp712
F0.4621145646068136
aa(lp713
F0.20085261689909897
aF-0.24275264068413174
aF0.009040829857559338
aF-0.04126386501904776
aF-0.02422098835341985
aF0.12239177311208614
aF0.0
aF0.20682629623274296
aF0.08475536300167602
aF0.0
aF0.8421640484707973
aa(lp714
F-0.0
aF0.0
aF0.0
aF-0.0
aF-0.0
aF-0.4214117342298134
aF0.0
aF0.23843760401925568
aF-0.3210464211983907
aF0.329025620060186
aF-0.2290479402183818
aF0.23076064087264606
aF-0.15208249643643812
aF-0.10719683122407067
aF-0.19687976913257826
aF0.12793501953146313
aF-0.0
aF0.05261056629387244
aF-0.0
aF0.508087558457659
aF0.511392646882286
aa(lp715
F0.0
aF0.020689076999843597
aF0.0
aF0.017656143883056002
aF-0.0
aF0.12654665129400416
aF-0.0
aF0.4114626830911358
aF0.3483094501266661
aa(lp716
F-0.0
aF-0.019404043270894466
aF-0.0
aF0.0
aF0.683111592283662
aF-0.23165517893664384
aF0.2160522619734265
aF0.0
aF0.12422408782878416
aF0.0
aF-1.0341042603439414
aF-0.0
aF0.2167308608223915
aF-0.0
aF0.5270723125344517
aF-0.0
aF-0.8496136998488178
aF0.9867648223327766
aF-0.0
aa(lp717
F-0.0
aF-0.0
aF0.0
aF0.0
aF0.05341474353252276
aF-0.0
aF-0.0
aF0.0
aF-0.04296837410922159
aF-0.0
aF-0.0
aF0.6453864067198122
aF0.0
aF0.0
aF0.35302785994372887
aa(lp718
F-0.18899536771579586
aF0.05468117565466628
aF0.0
aF0.030980454565539824
aF0.09196252498578292
aF0.23960128917436097
aF0.3178218554096173
aF0.03669901984402238
aF0.41059747301040256
aa(lp719
F-0.0
aF-0.019083385664979878
aF0.04620881158716793
aF-0.0
aF-0.08357172686469418
aF-0.04222256242958406
aF-0.1928828431065196
aF0.15530252317220591
aF-0.0
aF-0.0
aF0.8275351724232839
aF0.16458024240891655
aF0.26235284048207835
aa(lp720
F-0.06217537456470483
aF0.021605074510036765
aF-0.007335567431344023
aF-0.0
aF-0.28163933465899704
aF0.0
aF0.15605650472759394
aF0.2058867513345654
aF0.053144846873365334
aF0.5801214103905528
aF-0.4063269984252327
aF0.4052734819898198
aF0.31521776275502944
aa(lp721
F-0.0
aF-0.1137748888478778
aF0.032686587529885576
aF0.3072353083339796
aF-0.1473703652607202
aF0.017596612501597615
aF-0.0
aF1.0295488105605899
aa(lp722
F0.09096825067919563
aF0.06505629828674367
aF0.5917428876979718
aa(lp723
F0.14760196304539122
aF0.16570097963502547
aF0.0034938373033722237
aF0.10372583742867282
aF0.357359601326304
aF0.1842678105896214
aF0.07047221197511064
aF0.2129555329512579
aa(lp724
F0.18227673472413128
aF0.2378281676019335
aF0.11713084657361483
aF0.013994035923127241
aF0.0
aF0.0
aF-0.0
aF-0.028473838324925806
aF0.16328267089571866
aF0.0
aF-0.19421218108905047
aF-0.0
aF-0.0
aF0.08701159780236836
aF0.2424821477370447
aa(lp725
F0.06561032304530526
aF0.19334613448195137
aF0.012654180647968381
aF0.0
aF-0.003617071695256463
aF0.09592497079957703
aF-0.04206979134486036
aF0.065070399761216
aF-0.04058068400579388
aF0.030557790116464086
aF-0.012623581971542733
aF-0.08957574586105722
aF0.09153741300288237
aF0.01012312264170128
aF0.6655509933695715
aa(lp726
g518
(g522
S'\xed\xcd\x8d\x9e\x10\xac @'
p727
tp728
Rp729
ag518
(g522
S'\xc9\x89!\xb8\x89p\xd1?'
p730
tp731
Rp732
ag518
(g522
S'\xbd&\xe1\x7f9K\xc2?'
p733
tp734
Rp735
ag518
(g522
S'R\x1f\xfaM\xb2!\xea?'
p736
tp737
Rp738
ag518
(g522
S'\x07{m\x9c\xa3\xdb\xd2?'
p739
tp740
Rp741
ag518
(g522
S'\xceuQV\x96,\xb7?'
p742
tp743
Rp744
ag518
(g522
S'wQ\x045\xda\xb3\xc0?'
p745
tp746
Rp747
ag518
(g522
S'\xa2\xb2\xb2\xa0J\x82\xb5?'
p748
tp749
Rp750
ag518
(g522
S'e\xf6Qi8\x03\xa9?'
p751
tp752
Rp753
ag518
(g522
S'\x1ej_(3\xdf\xc7?'
p754
tp755
Rp756
ag518
(g522
S'\xc5\x93YA\x00\x16\xca?'
p757
tp758
Rp759
ag518
(g522
S'\xdb\xb5\xce\x14n\x10\xe3?'
p760
tp761
Rp762
ag518
(g522
S'p\x02f+\xc4R\xdd?'
p763
tp764
Rp765
ag518
(g522
S'/]\xccc\xeaA\xec?'
p766
tp767
Rp768
ag518
(g522
S'\x1c\x9e\x81[\x89h\xba?'
p769
tp770
Rp771
ag518
(g522
S'\xfd`G\x124?\xc2?'
p772
tp773
Rp774
ag518
(g522
S'\xc4\xac\xc1\xd47\x82\xb0?'
p775
tp776
Rp777
ag518
(g522
S'\xb87\x8b\x0ci\x15\xb2?'
p778
tp779
Rp780
ag518
(g522
S'\xa1\x8b|\xb0\xd7\xfa\xae?'
p781
tp782
Rp783
ag518
(g522
S'_kG\x119#\xa2?'
p784
tp785
Rp786
ag518
(g522
S'v\xbd\x0f\xdbMK\xf0?'
p787
tp788
Rp789
ag518
(g522
S'\x1b!tr\xc8\xd3\xae?'
p790
tp791
Rp792
ag518
(g522
S'\x94J.\xa8B\xfe\xb3?'
p793
tp794
Rp795
ag518
(g522
S'#n\x92\xf9+A\xaa?'
p796
tp797
Rp798
ag518
(g522
S'\xd6Y:A\xc1W\x97?'
p799
tp800
Rp801
ag518
(g522
S'\xa3\x86i\\A\xd4\x90?'
p802
tp803
Rp804
ag518
(g522
S'\x18\x89.\x9b\x13\x04\x93?'
p805
tp806
Rp807
ag518
(g522
S'\xdf\xd5|\x88\x86\x9d}?'
p808
tp809
Rp810
ag518
(g522
S'\xc3F\x13qJ\xca\x97?'
p811
tp812
Rp813
ag518
(g522
S'=\x87F\\\xc4W\xd0?'
p814
tp815
Rp816
ag518
(g522
S'\xe5\x14\xb29\x9e\xc1\xb7?'
p817
tp818
Rp819
ag518
(g522
S'>b\xa6\xa0\xbd\x1a\xb5?'
p820
tp821
Rp822
ag518
(g522
S'\x1e\xa1 [L$\xeb?'
p823
tp824
Rp825
ag518
(g522
S'#\xfa\xb6\xcc\xfbF\xc2?'
p826
tp827
Rp828
ag518
(g522
S']\xec\xbbLQ\x0c\x04@'
p829
tp830
Rp831
ag518
(g522
S'\x85\x03\xc7=\x83g\xa0?'
p832
tp833
Rp834
ag518
(g522
S'\x03\x1d}\xe6\xf7\xb6\x10@'
p835
tp836
Rp837
ag518
(g522
S'NC\x8e\xd7\x8b\x87\xc5?'
p838
tp839
Rp840
ag518
(g522
S'\x82h\xe4\x89\x1d\xb4\xb4?'
p841
tp842
Rp843
ag518
(g522
S'\xf3\x9d\x10\x08\x05v\xc6?'
p844
tp845
Rp846
ag518
(g522
S'\x85\xefB6:\xc8\xe4?'
p847
tp848
Rp849
ag518
(g522
S"\x92K{x\xac'\xdf?"
p850
tp851
Rp852
ag518
(g522
S'\xd0)\xc1@\xec`\xc9?'
p853
tp854
Rp855
ag518
(g522
S'\x14\\\x98s\xf4\x15\xde?'
p856
tp857
Rp858
ag518
(g522
S'\xb1\x97\xc8\x19\xde\x90\xb9?'
p859
tp860
Rp861
ag518
(g522
S'[\x84\x00\xbf\xcd\xb9\xe6?'
p862
tp863
Rp864
ag518
(g522
S'\xb5@\xd5m\xa4c\xf2?'
p865
tp866
Rp867
ag518
(g522
S'\xf4\x00\x81S\x8a\xc4\xd1?'
p868
tp869
Rp870
ag518
(g522
S'\x94\xaa\xf2\xe5\xa1\xa8\xe3?'
p871
tp872
Rp873
ag518
(g522
S'\xca\xec\xe0\x95\x11\x88\xa0?'
p874
tp875
Rp876
a(lp877
g518
(g522
S'\xa0\xd5\xc0-\xf3\xc4\x06@'
p878
tp879
Rp880
ag518
(g522
S'\x00\xb1\x9fv\xc5\x01\xcb?'
p881
tp882
Rp883
ag518
(g522
S'x\xb4\xde\xa5\xb2\xbe\x19@'
p884
tp885
Rp886
ag518
(g522
S'`\xc1o\x9c\xd7\xf2\x03@'
p887
tp888
Rp889
ag518
(g522
S'\x00WVb\xe0\x97\x0c\xc0'
p890
tp891
Rp892
ag518
(g522
S'\xcc\xba9\xd9p\xd4\x13@'
p893
tp894
Rp895
ag518
(g522
S'\xb8\xacf\x91XS\x06\xc0'
p896
tp897
Rp898
ag518
(g522
S'p`\xa7\x0e6\xb5\x13@'
p899
tp900
Rp901
ag518
(g522
S'\x00\xe8i\x9b\x16\x16\xe0?'
p902
tp903
Rp904
ag518
(g522
S'\xb4\x98b\x03vp\x1a@'
p905
tp906
Rp907
ag518
(g522
S'\x00\xd8\xd3u"\xba\xd9?'
p908
tp909
Rp910
ag518
(g522
S'\xdc\xb4\xea/\xf6\xdb#@'
p911
tp912
Rp913
ag518
(g522
S'\xa0\xedB\xa4\xea\xc9\xfb\xbf'
p914
tp915
Rp916
ag518
(g522
S'\xb8\x10\x12.o\x1f\x10\xc0'
p917
tp918
Rp919
ag518
(g522
S'0\xb1Q\x06\x92\xdf\x04\xc0'
p920
tp921
Rp922
ag518
(g522
S"\x90'\xd1^\xf3\xaf\x11\xc0"
p923
tp924
Rp925
ag518
(g522
S'x\x0f\x8f\xe3|h\x0b@'
p926
tp927
Rp928
ag518
(g522
S'\x80j\x0f\x8a}\xc4\x01@'
p929
tp930
Rp931
ag518
(g522
S'\xc8\x83r\xbb\xad\xb9\x03\xc0'
p932
tp933
Rp934
ag518
(g522
S'\x98\xd3\xae\xe8\x12\x0c\x03\xc0'
p935
tp936
Rp937
ag518
(g522
S'\x00\x00\x9f\x179k\xb9\xbf'
p938
tp939
Rp940
ag518
(g522
S'x\xb6\xfe\xc9bE\x0c@'
p941
tp942
Rp943
ag518
(g522
S'\xb8\xfe\xfc\xb6\xed\xbd\x04\xc0'
p944
tp945
Rp946
ag518
(g522
S'\xb8E\xe3\xf2\xbc\xdb\x0f\xc0'
p947
tp948
Rp949
ag518
(g522
S'h\x10\xd5Y\x9f-\x01\xc0'
p950
tp951
Rp952
ag518
(g522
S' \x1c\xe3\x8b\xce\x8f\xff\xbf'
p953
tp954
Rp955
ag518
(g522
S'\x80\xef\xa09\\\x13\xf3\xbf'
p956
tp957
Rp958
ag518
(g522
S'\x00(P1\xf7]\xea?'
p959
tp960
Rp961
ag518
(g522
S'\x14\xe7\xd8\x15\r1\x10\xc0'
p962
tp963
Rp964
ag518
(g522
S'\x80\xeaR\xd5\x87V\xe2\xbf'
p965
tp966
Rp967
ag518
(g522
S'@"\xc1pd\xe1\xf2\xbf'
p968
tp969
Rp970
ag518
(g522
S'x\xd4O\xf8\xbe\x86\x12@'
p971
tp972
Rp973
ag518
(g522
S'xyWZ\xef\xcf\x1b@'
p974
tp975
Rp976
ag518
(g522
S'X\xf1\x05\x162\xf5\x1d@'
p977
tp978
Rp979
ag518
(g522
S'\xc0\x8eFTx\xd8\x11\xc0'
p980
tp981
Rp982
ag518
(g522
S'\x10@"\x93.\xeb\x05\xc0'
p983
tp984
Rp985
ag518
(g522
S'\xd4\xe2\xd2\x04\x16\xed/@'
p986
tp987
Rp988
ag518
(g522
S'hwyu`\xae\x1f\xc0'
p989
tp990
Rp991
ag518
(g522
S'\xfa\xa8\x12\xa7eb.@'
p992
tp993
Rp994
ag518
(g522
S'\x80\xd7G<\xe0r\xd2\xbf'
p995
tp996
Rp997
ag518
(g522
S'\xf8\x07\xfe/J\xac/@'
p998
tp999
Rp1000
ag518
(g522
S"\x00'\xd5\xae/\xd8\xe2\xbf"
p1001
tp1002
Rp1003
ag518
(g522
S'\x00S\xa1\x11\xfa\x17\xd7?'
p1004
tp1005
Rp1006
ag518
(g522
S'\xc0\nR\x0eq\x9e\xee?'
p1007
tp1008
Rp1009
ag518
(g522
S'@\xb9\xb2&\xe0\x87\xe4\xbf'
p1010
tp1011
Rp1012
ag518
(g522
S'\xe0?\xe1\x96\x17=\xfd\xbf'
p1013
tp1014
Rp1015
ag518
(g522
S'\xcc_\x17\xa3L\xb7\x1e@'
p1016
tp1017
Rp1018
ag518
(g522
S'\xb0\x97\x9c\xf4\xf3l \xc0'
p1019
tp1020
Rp1021
ag518
(g522
S'\x00\xb7\xa7\x9f\xf5\xb9\x11@'
p1022
tp1023
Rp1024
ag518
(g522
S'\x00 \xf6:\xbbP\xfb\xbf'
p1025
tp1026
Rp1027
a(lp1028
cnumpy.core.multiarray
_reconstruct
p1029
(cnumpy
ndarray
p1030
(I0
tp1031
S'b'
p1032
tp1033
Rp1034
(I1
(L1L
tp1035
g522
I00
S'Z7\x88\x9f\x17\xea\xec?'
p1036
tp1037
ba(lp1038
F0.7927425583306394
aF0.27965983658714894
aa(lp1039
F0.0
aF0.7377184297616831
aF0.0
aa(lp1040
F-0.7400735010643688
aF1.3162599069001921
aF0.4224210792454959
aa(lp1041
F0.5722290879701251
aF0.07781080044274603
aF-0.2752735719438331
aF0.45452427923143346
aF0.30368227080848886
aa(lp1042
F0.4605341877808963
aF0.3239339764951364
aF0.04263391309720504
aa(lp1043
F0.5926026806718255
aF-0.351524584182436
aF-0.8290057240529435
aF1.1332633490856316
aF0.462579758269733
aF0.05699846506282677
aa(lp1044
F-0.0
aF-0.2690125371786132
aF0.0
aF0.0
aF1.0778926010197365
aF0.0603429746769922
aa(lp1045
F0.09444310645249604
aF0.3077258172018709
aF0.05650991124901401
aF0.19057900585290713
aF0.3622534473239795
aF-0.0
aa(lp1046
F0.7561344449436692
aF0.1365443870202048
aF-1.152635520342033
aF0.5603071991908907
aF-0.0
aF0.3251440952065433
aF0.0
aF0.17882836780578404
aa(lp1047
F0.8577794678859656
aF0.09771632137718506
aa(lp1048
F0.02697341935349489
aF0.4310384838798867
aF0.03508613315867586
aF0.18861274668236605
aa(lp1049
F-0.08717604848112083
aF0.7660017209863669
aF-0.2713751126082518
aF-0.0
aF0.23121732367673511
aF-0.06748880433966528
aF-0.4805854392253252
aF0.20150589767773733
aF0.462834267678219
aF0.11221091635948614
aF-0.05609591482369597
aF0.18395483862959147
aa(lp1050
F-0.14574971401825895
aF1.1374948776838711
aF0.04759086577340783
aF-0.03569360938454424
aF-0.28670792742368517
aF-0.5953931335508812
aF-0.10705062722131295
aF0.9967822040441066
aF0.09169208195039091
aa(lp1051
F-0.0
aF0.0
aF-0.008144346379731413
aF-0.072945685863379
aF0.11108650586890316
aF0.11036670144551346
aF-0.11464574892642435
aF0.11267163123425848
aF0.8918187284910905
aF0.019494349487478555
aa(lp1052
F0.22604668294792313
aF0.018491438363278677
aF0.315499819394024
aF-0.2839221394075018
aF-0.0
aF0.4029788030584821
aF0.04982956222522414
aF-0.19212679803546284
aF0.03112752515429943
aF0.5107923320891175
aF-0.027352282104035053
aa(lp1053
F-0.0
aF-0.0077472438283183315
aF0.04768840417812193
aF0.08339565240082232
aF-0.16905607511171544
aF0.0577007048685888
aF0.3366476514488377
aF0.5676774645337456
aF-0.0
aa(lp1054
F0.6292853026931479
aF0.0
aF-0.15586786546803907
aF-0.41484067279401077
aF0.11570322321175174
aF0.0
aF0.7874267827074553
aF0.2845864725799368
aF0.02059934040381768
aF0.6983760720244152
aF-0.20399365933085423
aF-1.1279961115750985
aF0.12726282355743573
aF-0.022724657806446488
aF0.014173770088741282
aa(lp1055
F0.10311146439088145
aF0.0547914316529242
aF-0.04082191841113826
aF-0.030014420042733813
aF0.1274163807419812
aF0.15479344762740674
aF0.035762475126333994
aF-0.051973497054175484
aF-0.10813679347278532
aF0.7789593382069877
aF0.029182934271467367
aa(lp1056
F0.0315425991891081
aF-0.005235778185222025
aF0.0
aF0.0
aF0.0
aF0.005930250494384753
aF0.09950737562344751
aF0.0907918496954111
aF0.09474757159382431
aF0.6830742803629442
aF0.07023724531436946
aa(lp1057
F0.0
aF0.3997899987622842
aF0.06614354795566595
aF0.308743370906493
aF0.08660903455501946
aa(lp1058
F-0.1512751184230756
aF-0.0
aF0.06521263216595766
aF0.9989666560806298
aF0.0014536202592834767
aa(lp1059
F0.0
aF0.01664889056559704
aF0.03275720976339309
aF0.025438446299928738
aF0.060679821983713085
aF0.012698463757997
aF0.22495033553492705
aF0.16902663661561873
aF0.6228742363780042
aF0.0
aa(lp1060
F-0.0367813888773079
aF0.02511843083307426
aF0.08691851245945653
aF0.0
aF0.22266752990012198
aF-0.0
aF0.027969402938320256
aF-0.061017730638014286
aF0.7848148677631638
aF0.03182226048335658
aa(lp1061
F0.0
aF0.03444311913353687
aF-0.14663340744333814
aF0.0
aF0.0
aF-0.0
aF0.20914805471554138
aF0.41196583064501247
aF0.20615413068549227
aF0.4199591579831477
aF0.0
aa(lp1062
F0.0
aF0.027088860339938244
aF0.0
aF0.005709064527451683
aF-0.0
aF-0.00047726101243161854
aF0.03454626656394843
aF0.22193316010089775
aF0.09945270025008802
aF0.4577752006961546
aF0.20675316925692278
aF0.034504590731323996
aa(lp1063
F0.0
aF0.0
aF0.0
aF0.09152901110100777
aF-0.12420831531776469
aF-0.024257362081593636
aF0.17514319561904937
aF0.6328228509852731
aF0.0
aF0.31220263805473647
aF0.0
aa(lp1064
F-0.0
aF0.02929697835827685
aF0.015914713427643955
aF0.0
aF0.02372104610760658
aF0.024654079052276175
aF0.14706780171672978
aF0.025115087581935754
aF0.05464754375140741
aF0.03107664167692144
aF0.3311400834360055
aF0.31929351089701113
aF0.01719463729218359
aF-0.0
aa(lp1065
F0.0
aF0.0
aF0.08324751746430585
aF0.0010254166159710766
aF0.07140905119043382
aF0.0799223573915085
aF0.3887025880009403
aF0.23775401491550863
aF0.054192376311374094
aF0.07834831097960698
aF0.08543641653516425
aF0.08561430156649108
aF0.0
aa(lp1066
F0.08564403959416701
aF-0.01638786917882793
aF9.39123347129605e-05
aF0.5739119109480748
aF0.15313643637706845
aF0.038387074483641925
aF0.0
aF0.21412050002416702
aF0.024248320706472846
aa(lp1067
F0.0
aF0.09503873960854099
aF0.0
aF0.014485837280884513
aF0.0
aF0.0888126303051747
aF0.5543977556156887
aF0.1528022531806224
aF-0.4054870655706164
aF-0.024513894593296233
aF0.0
aF0.29344956080614254
aF0.42534100644461986
aF0.017569316723613324
aa(lp1068
F0.25094664782878223
aF0.08176433035951847
aF0.008173533695309822
aF-0.019392878987384714
aF0.061625589072631715
aF0.0
aF0.13664256662095745
aF0.026256687266767782
aF0.11035342277705629
aF0.3064504132018543
aF0.017963851075782456
aa(lp1069
F0.8462068720760487
aF0.0
aa(lp1070
F0.0
aF0.026292852301665726
aF0.2777029814145971
aF0.0009640030834724599
aF-0.0
aF-0.056317818525222565
aF-0.0
aF0.0
aF0.0
aF0.016008460075406877
aF0.4494102745471266
aF0.05080233024192253
aa(lp1071
F-0.06069470372080506
aF0.05167608850745191
aF-0.11970782279346733
aF0.0
aF0.07554916477617193
aF0.8536137811252889
aF0.18112068953330754
aa(lp1072
F0.016400832768174115
aF0.13494276511532044
aF-0.0056233338935122975
aF-0.0
aF0.10832664049473038
aF0.0
aF0.6118544087672747
aF0.22099844113024547
aF0.002934523547403854
aa(lp1073
F0.48389325795563887
aF0.003693032140971855
aa(lp1074
F0.2066147174302591
aF-0.1985545645024296
aF0.03996925614013413
aF-0.14616581943771842
aF-0.0
aF0.004123950682139096
aF0.0792766756710908
aF0.2064491996620061
aF0.11586746236619792
aF0.014136962038968876
aF0.8292470799200412
aF0.0
aa(lp1075
F-0.038919982767110985
aF-0.23472483151775175
aF-0.07621377235130636
aF-0.24564190379337048
aF-0.06361577304022091
aF-0.2632519051369885
aF0.2711678272403335
aF0.0
aF-0.23075806304447877
aF0.0
aF0.0
aF0.7224058752577998
aF-0.11576846451109234
aF-0.08344754608638578
aF-0.0
aF0.0
aF-0.036575216935097334
aF0.0034375731013840853
aF-0.10963530881163093
aF0.5189113423355185
aF0.5113814646014838
aF-0.004709187771948257
aa(lp1076
F0.04316522465159915
aF0.0
aF0.07618142084247621
aF0.15056685302998637
aF-0.22838752618301247
aF0.09652582578448211
aF-0.03363216324449447
aF0.19500485163776154
aF0.6442979898717113
aF0.07795053579562473
aa(lp1077
F-0.4129322908983187
aF-0.1229386334418953
aF-0.2671698010606733
aF0.3366566791583387
aF0.0
aF-0.40708519504042484
aF0.7907750600914056
aF0.18336134438259177
aF0.8631377243896162
aF0.04897768988615765
aF-0.16929323159903936
aF-0.819025676131218
aF0.05322037420056056
aF-0.14395041070541434
aF0.4071551125429117
aF0.01739739831238603
aF-0.0
aF0.7431229340945731
aF-0.7032939611202543
aF0.06274174035277486
aa(lp1078
F-0.11992724705422085
aF-0.010604296003635872
aF0.06423080464901548
aF0.16462821186607296
aF0.0
aF-0.3025856854966872
aF-0.036870381035762116
aF0.2025372853786791
aF-0.07654823063003938
aF0.0485139368707912
aF0.08829020252664337
aF0.7019452323111338
aF-0.19789261818163256
aF0.1946837889932856
aF0.17061033259156452
aF0.07010865236682697
aa(lp1079
F-0.13800421082511186
aF0.0
aF0.011692924162815765
aF0.04272935422188029
aF0.1063121849646572
aF0.19433997964226085
aF0.3903084898013642
aF0.03731305648834642
aF0.3608192300278354
aF0.0
aa(lp1080
F0.010510708585702584
aF-0.08357371904013408
aF-0.0
aF-0.05169746548429009
aF-0.0
aF-0.0
aF-0.2980647715763043
aF0.41398505357815263
aF-0.2317207130215794
aF-0.03992135784646301
aF0.7219480919771922
aF0.36833599814065154
aF0.24049860584827612
aF0.0
aa(lp1081
F-0.1096044671805278
aF0.34896143180491906
aF-0.0
aF-0.33257509917710004
aF-0.0
aF0.02584273090765032
aF0.06116077167472994
aF0.10400667048697508
aF0.12011069327953103
aF0.3871600347793408
aF-0.3395966888068306
aF0.4249738705407818
aF0.2134500059900481
aF0.04094144328356464
aa(lp1082
F-0.16024148698056098
aF-0.11707618754292079
aF0.07895650775573515
aF0.33476512237229145
aF-0.17236051817446932
aF0.17787113788015468
aF-0.16855928162792808
aF0.9644869220095057
aF0.01056199809877591
aa(lp1083
F0.0
aF0.14173614774035667
aF0.5791147916150652
aF0.03203474262285377
aa(lp1084
F0.0
aF0.1912989588709615
aF0.10616112501792326
aF0.05102856425794384
aF0.3831940724601357
aF0.1385309597118223
aF0.05634741448080608
aF0.2514423596100476
aF0.03469749426058712
aa(lp1085
F0.2240009886136448
aF0.25802711779939097
aF0.0
aF0.0
aF0.0411126154008431
aF0.01935886831799906
aF-0.24453209195788939
aF-0.0
aF0.1595315746656066
aF0.23235715416130742
aF-0.10559055099664097
aF-0.08885020554469322
aF-0.03466729639752246
aF0.04997345270520944
aF0.20227524496349408
aF0.1026644467620441
aa(lp1086
F0.0
aF0.17780556945302944
aF0.05631841619684476
aF0.05272327453100793
aF0.0
aF0.03667304969401001
aF-0.0
aF0.028403653176891572
aF-0.024346845686481093
aF0.04737611088232512
aF-0.02603094355535887
aF-0.031001857381755284
aF0.017391380830315942
aF0.0
aF0.6698557653827566
aF0.0527218799731223
aa(lp1087
g518
(g522
S'\xe5\x92\x0e\xb6fO\xea?'
p1088
tp1089
Rp1090
ag518
(g522
S'\xe5"\xe5e\x1a\xe9\xc8?'
p1091
tp1092
Rp1093
ag518
(g522
S'\xaa^\xca\x07\xe0G\xc4?'
p1094
tp1095
Rp1096
ag518
(g522
S'0\xc8\x199\xb7v\xdf?'
p1097
tp1098
Rp1099
ag518
(g522
S'\xcd{\x17\xa6\xd9*\xcc?'
p1100
tp1101
Rp1102
ag518
(g522
S'7O\xf3\xbf\x94Z\xb5?'
p1103
tp1104
Rp1105
ag518
(g522
S';*ixZ\xfc\xbf?'
p1106
tp1107
Rp1108
ag518
(g522
S'OY\xe6dCk\xb6?'
p1109
tp1110
Rp1111
ag518
(g522
S'|O\xa2n\x92\x8d\xad?'
p1112
tp1113
Rp1114
ag518
(g522
S'7#*9\x1b\x06\xcc?'
p1115
tp1116
Rp1117
ag518
(g522
S'\tJ\xfd\x0f\xce\x82\xc6?'
p1118
tp1119
Rp1120
ag518
(g522
S'\x1e\xe4\xb3\xd2C\xa1\xe1?'
p1121
tp1122
Rp1123
ag518
(g522
S'\xd1`\xa7\xfcd\xaf\xbc?'
p1124
tp1125
Rp1126
ag518
(g522
S'\xaa4\x1d\xd5\xfe\xa2\xc9?'
p1127
tp1128
Rp1129
ag518
(g522
S'#C\x06\x0c<|\xaf?'
p1130
tp1131
Rp1132
ag518
(g522
S'\xdaT\xe1\xe6\x88L\xb7?'
p1133
tp1134
Rp1135
ag518
(g522
S'\xfb?\xe9 \xff\x94\xb0?'
p1136
tp1137
Rp1138
ag518
(g522
S'\x02\xe9\xda\x95\xec\x1f\xb2?'
p1139
tp1140
Rp1141
ag518
(g522
S'\xef\xfa\xd6\xbd\xae}\xa2?'
p1142
tp1143
Rp1144
ag518
(g522
S'V%\x87\xf9\xed\x93\x9b?'
p1145
tp1146
Rp1147
ag518
(g522
S'\xe5\xaf\xddm(5\xf1?'
p1148
tp1149
Rp1150
ag518
(g522
S'\xf9D}\x12\x93\xbc\xa7?'
p1151
tp1152
Rp1153
ag518
(g522
S'{h]v\x8d\x1b\xac?'
p1154
tp1155
Rp1156
ag518
(g522
S'\xa2N\xbf>\xd6\xd5\xaa?'
p1157
tp1158
Rp1159
ag518
(g522
S'\xfb&\xa7\xfe[g\x99?'
p1160
tp1161
Rp1162
ag518
(g522
S'\xe7\xbbjO\x12|\x90?'
p1163
tp1164
Rp1165
ag518
(g522
S'v\x0f\xfe\xab\x1f)\x80?'
p1166
tp1167
Rp1168
ag518
(g522
S'\x8b\x96\xb7\xc9\x9c\xa9{?'
p1169
tp1170
Rp1171
ag518
(g522
S'(G\xab\xb0?\xe2\x90?'
p1172
tp1173
Rp1174
ag518
(g522
S'\x8c\xb2\xc8I\xcf\xa2\xd1?'
p1175
tp1176
Rp1177
ag518
(g522
S'\x11\xed>V\xd0\x8f\xaa?'
p1178
tp1179
Rp1180
ag518
(g522
S'\x13\x04\xee\x8b\xb4\x9f\xb3?'
p1181
tp1182
Rp1183
ag518
(g522
S'e\xb9\xaf\xb3\xba\x15\xed?'
p1184
tp1185
Rp1186
ag518
(g522
S'\xd5O\xe6\x94f\xbb\xc2?'
p1187
tp1188
Rp1189
ag518
(g522
S'\x95\xda\xbf\xa6\xeaj\x01@'
p1190
tp1191
Rp1192
ag518
(g522
S'}y\xd4\xa6-\xe7\xa3?'
p1193
tp1194
Rp1195
ag518
(g522
S'\xaf\xfe\xf6\x0f\xae\xa4\x10@'
p1196
tp1197
Rp1198
ag518
(g522
S"\xb2n\xee'=\x88\xc4?"
p1199
tp1200
Rp1201
ag518
(g522
S'O\x8bm\x87F\xe1\xbc?'
p1202
tp1203
Rp1204
ag518
(g522
S'\xb4&R\xf1\xa8v\xb0?'
p1205
tp1206
Rp1207
ag518
(g522
S'\xc8\xac\x19tb\xd7\xca?'
p1208
tp1209
Rp1210
ag518
(g522
S'\xafWj\x0fW\xbe\xb9?'
p1211
tp1212
Rp1213
ag518
(g522
S'\xe8\xe5}\xe8\x87\x85\xcc?'
p1214
tp1215
Rp1216
ag518
(g522
S'\x84G)\x9f\x0e\x15\xcc?'
p1217
tp1218
Rp1219
ag518
(g522
S'\xddQ\x10\x05\xed\xc9\xb7?'
p1220
tp1221
Rp1222
ag518
(g522
S'c\xfa\xa9n\xa6\x87\xd3?'
p1223
tp1224
Rp1225
ag518
(g522
S'\x88P\xa4\xcd\x9d\xa2\xf7?'
p1226
tp1227
Rp1228
ag518
(g522
S'\xe0j@\xd2\xce\xf2\xd1?'
p1229
tp1230
Rp1231
ag518
(g522
S'\xa4\xe0n\xa4QY\xdc?'
p1232
tp1233
Rp1234
ag518
(g522
S'\xf6\xab\xdc\xb5\x9b \xa6?'
p1235
tp1236
Rp1237
atp1238
.